ccopy_reg
_reconstructor
p0
(csklearn.pipeline
Pipeline
p1
c__builtin__
object
p2
Ntp3
Rp4
(dp5
S'_sklearn_version'
p6
S'0.18.1'
p7
sS'steps'
p8
(lp9
(S'preprocessor'
p10
g0
(csvm_model.classification_module
NLTKPreprocessor
p11
g2
Ntp12
Rp13
(dp14
S'punct'
p15
c__builtin__
set
p16
((lp17
S'!'
p18
aS'#'
p19
aS'"'
p20
aS'%'
p21
aS'$'
p22
aS"'"
p23
aS'&'
p24
aS')'
p25
aS'('
p26
aS'+'
p27
aS'*'
p28
aS'-'
p29
aS','
p30
aS'/'
p31
aS'.'
p32
aS';'
p33
aS':'
p34
aS'='
p35
aS'<'
p36
aS'?'
p37
aS'>'
p38
aS'@'
p39
aS'['
p40
aS']'
p41
aS'\\'
p42
aS'_'
p43
aS'^'
p44
aS'`'
p45
aS'{'
p46
aS'}'
p47
aS'|'
p48
aS'~'
p49
atp50
Rp51
sS'lower'
p52
I01
sS'stopwords'
p53
g16
((lp54
Vall
p55
aVjust
p56
aVbeing
p57
aVover
p58
aVboth
p59
aVthrough
p60
aVyourselves
p61
aVits
p62
aVbefore
p63
aVherself
p64
aVhad
p65
aVshould
p66
aVto
p67
aVonly
p68
aVunder
p69
aVours
p70
aVhas
p71
aVdo
p72
aVthem
p73
aVhis
p74
aVvery
p75
aVthey
p76
aVnot
p77
aVduring
p78
aVnow
p79
aVhim
p80
aVnor
p81
aVdid
p82
aVthis
p83
aVshe
p84
aVeach
p85
aVfurther
p86
aVwhere
p87
aVfew
p88
aVbecause
p89
aVdoing
p90
aVsome
p91
aVare
p92
aVour
p93
aVourselves
p94
aVout
p95
aVwhat
p96
aVfor
p97
aVwhile
p98
aVdoes
p99
aVabove
p100
aVbetween
p101
aVt
p102
aVbe
p103
aVwe
p104
aVwho
p105
aVwere
p106
aVhere
p107
aVhers
p108
aVby
p109
aVon
p110
aVabout
p111
aVof
p112
aVagainst
p113
aVs
p114
aVor
p115
aVown
p116
aVinto
p117
aVyourself
p118
aVdown
p119
aVyour
p120
aVfrom
p121
aVher
p122
aVtheir
p123
aVthere
p124
aVbeen
p125
aVwhom
p126
aVtoo
p127
aVthemselves
p128
aVwas
p129
aVuntil
p130
aVmore
p131
aVhimself
p132
aVthat
p133
aVbut
p134
aVdon
p135
aVwith
p136
aVthan
p137
aVthose
p138
aVhe
p139
aVme
p140
aVmyself
p141
aVthese
p142
aVup
p143
aVwill
p144
aVbelow
p145
aVcan
p146
aVtheirs
p147
aVmy
p148
aVand
p149
aVthen
p150
aVis
p151
aVam
p152
aVit
p153
aVan
p154
aVas
p155
aVitself
p156
aVat
p157
aVhave
p158
aVin
p159
aVany
p160
aVif
p161
aVagain
p162
aVno
p163
aVwhen
p164
aVsame
p165
aVhow
p166
aVother
p167
aVwhich
p168
aVyou
p169
aVafter
p170
aVmost
p171
aVsuch
p172
aVwhy
p173
aVa
p174
aVoff
p175
aVi
p176
aVyours
p177
aVso
p178
aVthe
p179
aVhaving
p180
aVonce
p181
atp182
Rp183
sS'lemmatizer'
p184
g0
(cnltk.stem.wordnet
WordNetLemmatizer
p185
g2
Ntp186
Rp187
sS'strip'
p188
I01
sbtp189
a(S'vectorizer'
p190
g0
(csklearn.feature_extraction.text
TfidfVectorizer
p191
g2
Ntp192
Rp193
(dp194
S'decode_error'
p195
Vstrict
p196
sS'vocabulary'
p197
NsS'encoding'
p198
Vutf-8
p199
sS'token_pattern'
p200
V(?u)\u005cb\u005cw\u005cw+\u005cb
p201
sS'analyzer'
p202
Vword
p203
sS'ngram_range'
p204
(I1
I1
tp205
sg10
NsS'max_df'
p206
F0.95
sS'min_df'
p207
F0.01
sS'max_features'
p208
NsS'fixed_vocabulary_'
p209
I00
sS'stop_words_'
p210
g16
((lp211
Vinning
p212
aVnws
p213
aVypaqbasvfu
p214
aVmagnetic
p215
aVvnumatnumeajrv
p216
aVgetseman
p217
aVyellow
p218
aVcitizenscience
p219
aVandre
p220
aVsleep
p221
aVynumoiaiksanum
p222
aVmansion
p223
aVxdqvcoccdf
p224
aVcaptain
p225
aVhate
p226
aVswag
p227
aVbooty
p228
aVporche
p229
aVaurorawatch
p230
aVovwtxfnumbyh
p231
aVspin
p232
aVtweet
p233
aVnumotihsunumt
p234
aVpresento
p235
aVcinemark
p236
aVlist
p237
aVedward
p238
aVvoinumiiqmm
p239
aVbuyer
p240
aVfmnkdiokdh
p241
aVwhack
p242
aVwygirgidtnum
p243
aVkinuha
p244
aVrockymountainrugbychallengenum
p245
aVcemetary
p246
aVsaskatchewan
p247
aVeucurtorecife
p248
aVrise
p249
aVweald
p250
aVjstgnnumegnumw
p251
aVgeorgia
p252
aVevery
p253
aVvhlnummdjrzm
p254
aVzupmvnmxrq
p255
aVencounter
p256
aVyikes
p257
aVschool
p258
aVmarchesani
p259
aVbestfriend
p260
aVprize
p261
aVctrdtjqpaa
p262
aVmcminnville
p263
aVcme
p264
aVhouseoffraser
p265
aVuyponumuplnumb
p266
aVwednesday
p267
aVdnumxbqnumsonm
p268
aVhumidity
p269
aVbwelqhnumtcc
p270
aVvenus
p271
aVeciikhtucnum
p272
aVnumvfcnumxtnumel
p273
aVxkxohrztwm
p274
aVclothes
p275
aVhora
p276
aVfarmhouse
p277
aValstatt
p278
aVsepet
p279
aVktnumgpmanumnt
p280
aVbatch
p281
aVnail
p282
aVtobsgehlan
p283
aVsecond
p284
aVfirsttimevoter
p285
aVgoproever
p286
aVwarbler
p287
aVfixie
p288
aVpyknumragxmq
p289
aVnascer
p290
aVdtdxylqajn
p291
aVabogado
p292
aVfeck
p293
aVpollution
p294
aVeven
p295
aVtipo
p296
aVnumwnnumjqnumvnq
p297
aVbrfnumoknumipw
p298
aVpanama
p299
aVwxnwfb
p300
aVasia
p301
aVwouldnt
p302
aVhaze
p303
aVfuga
p304
aVmisnoxxnumrnum
p305
aVsobre
p306
aVbenham
p307
aVnyadar
p308
aVever
p309
aVmightve
p310
aVvyslnumlvfnumm
p311
aVcrouch
p312
aVcurry
p313
aViknumurhymnumi
p314
aVnumknumuznummmnum
p315
aVaja
p316
aVhq
p317
aVmen
p318
aVsunspot
p319
aVhere
p320
aVmeu
p321
aVamerica
p322
aVchassis
p323
aVchina
p324
aVactive
p325
aVtumblr
p326
aVaavacoddtnum
p327
aVzvkbpnumnlsf
p328
aVbuddy
p329
aVdry
p330
aVdarkness
p331
aVphvote
p332
aVvoice
p333
aVspokane
p334
aVauction
p335
aVnumgnumzgshet
p336
aVjixquylnumxf
p337
aVadopt
p338
aVbjznumfjfjei
p339
aVcredit
p340
aVako
p341
aVgenerale
p342
aVsmoke
p343
aVpermit
p344
aVmilitary
p345
aVaka
p346
aVpack
p347
aVffnumxgowsjs
p348
aVhnumbznzvsbt
p349
aVgolden
p350
aVfantastic
p351
aVqkvwenpnumrq
p352
aVcampaign
p353
aVuuvihasxef
p354
aVcounty
p355
aVnsnumrsfjyzt
p356
aVkakauwi
p357
aVunit
p358
aVgifttea
p359
aVsarah
p360
aVcharge
p361
aVwould
p362
aVmusttry
p363
aVnora
p364
aVmaen
p365
aVlwnumhryuhwv
p366
aVcali
p367
aVbike
p368
aVoverhead
p369
aVcalm
p370
aVrecommend
p371
aVstrike
p372
aVpreview
p373
aVtell
p374
aVnumomxxbpql
p375
aVjujhvlxvbj
p376
aVhaha
p377
aVglass
p378
aVsmedvig
p379
aVorgullosa
p380
aVznummbwopdla
p381
aVadult
p382
aVpnumozhtyanum
p383
aVyard
p384
aVpurty
p385
aVhold
p386
aVnamebuy
p387
aVcsrunning
p388
aVwhyhynumknumdl
p389
aVmust
p390
aVroapnjppom
p391
aVmd
p392
aVsfinum
p393
aVpride
p394
aVjoin
p395
aVroom
p396
aVpnumwnoheraz
p397
aVplayer
p398
aVmm
p399
aVcrest
p400
aVmo
p401
aVwork
p402
aVmi
p403
aVworm
p404
aVauroraonadish
p405
aVmt
p406
aVgoodvibes
p407
aVinstall
p408
aVdinumtflenumcd
p409
aVcarmen
p410
aVcarmel
p411
aVenumggnumrbnumgu
p412
aVdecorative
p413
aVwunderphoto
p414
aVempieza
p415
aVwand
p416
aVhousehold
p417
aVnumdyueioknum
p418
aVazka
p419
aVgusto
p420
aVxcyomatxlc
p421
aVnwnummkkyjbq
p422
aVsolarwx
p423
aVcejpsuknumcy
p424
aVforfar
p425
aVattract
p426
aVtinggian
p427
aVabsolute
p428
aVceremony
p429
aVprovincial
p430
aVhoe
p431
aVdaschaund
p432
aVturn
p433
aVprovide
p434
aVtravel
p435
aVinstape
p436
aVfeature
p437
aVnumxnum
p438
aVmachine
p439
aVorjdnumtxnumpo
p440
aVhot
p441
aVhop
p442
aVstrom
p443
aVdisappoint
p444
aVordinary
p445
aVria
p446
aVbeach
p447
aVblanket
p448
aVdoorstep
p449
aVmassive
p450
aVlah
p451
aVdescription
p452
aVbeauty
p453
aVsxxkowdnumrj
p454
aVearlier
p455
aVkahit
p456
aVultrahigh
p457
aVwrong
p458
aVigers
p459
aVcorporesanorunning
p460
aVknumgqwmoqlv
p461
aVmorganandthomas
p462
aVlas
p463
aVsharecalgary
p464
aVchalmers
p465
aVsplendid
p466
aVdealer
p467
aVwhoareyouand
p468
aVaurorawatchuk
p469
aVowls
p470
aVvunumcfmznumga
p471
aVgreen
p472
aVultimate
p473
aVgoodbye
p474
aVstra
p475
aVoperate
p476
aVnumrnnumcnumvylr
p477
aVorder
p478
aVwind
p479
aVwine
p480
aVbanger
p481
aVsharktankau
p482
aVnaman
p483
aVoffice
p484
aVbanget
p485
aVekky
p486
aVcareeratsea
p487
aVbuttfucked
p488
aVhelena
p489
aVbestweekofyourlife
p490
aVdetalia
p491
aVkvejtnumnmtu
p492
aVpcrlhfvnumfnum
p493
aVuccknumhwlts
p494
aVmayor
p495
aVxo
p496
aVnumkp
p497
aVgoproph
p498
aVpersonal
p499
aVouvindo
p500
aVnumwnxwnummqnum
p501
aVtwitter
p502
aVcrew
p503
aVclickurbano
p504
aVstrand
p505
aVfade
p506
aVnumkm
p507
aVartika
p508
aVfnumlrnumyknjb
p509
aVohllmnumonbr
p510
aVgfejufnyjw
p511
aVcoffee
p512
aVhawthorn
p513
aViowa
p514
aVpegi
p515
aVsafe
p516
aVqwlynumkdpsr
p517
aVhxamnumrnq
p518
aVbrasileira
p519
aVxd
p520
aVbeaut
p521
aVnumbgnummnumzl
p522
aVther
p523
aVnumkoaenumwzgy
p524
aVmeat
p525
aVl
p526
aVherald
p527
aVtromso
p528
aVovation
p529
aVhrppmidjue
p530
aVyung
p531
aVnummaynum
p532
aVbone
p533
aVmean
p534
aVseries
p535
aVspider
p536
aVapotheosis
p537
aVumprxykfnumn
p538
aVauroratakeover
p539
aVmilan
p540
aViixdcezqvv
p541
aVdubstep
p542
aVzds
p543
aVsanshuu
p544
aVsmores
p545
aVdawn
p546
aVextract
p547
aVsaturday
p548
aVmdt
p549
aVartistz_united
p550
aVmatou
p551
aVlooseleaf
p552
aVlakeminnewanka
p553
aVujqunumrbunv
p554
aVrealtime
p555
aVpalay
p556
aVgod
p557
aVtrznumqnumpzgnum
p558
aVmatar
p559
aVsmp
p560
aVbqinumdamjqo
p561
aVforte
p562
aVdaniel
p563
aVdnumixpolhrx
p564
aVtelpiywfyb
p565
aVrl
p566
aVsurprise
p567
aVrn
p568
aVro
p569
aVsfrfkpxnumse
p570
aVfoto
p571
aVvisayas
p572
aVaurorawebcam
p573
aVgsnumfxxsnumrg
p574
aVfave
p575
aVrevenge
p576
aVfree
p577
aVxnumsbonhvvc
p578
aVstormhour
p579
aVformation
p580
aVhoodie
p581
aVnumtmyvdpunumy
p582
aVtbpaknumvpnumy
p583
aVhavenum
p584
aVcertified
p585
aVmvp
p586
aVcumnumtoequk
p587
aVperform
p588
aVatm
p589
aVviewing
p590
aVanak
p591
aVanaedfusjm
p592
aVflawless
p593
aVarstmaqnumz
p594
aVish
p595
aVtravelphotography
p596
aVcanterbury
p597
aVisl
p598
aVisa
p599
aVhinumbnumrhnumft
p600
aVloud
p601
aVhire
p602
aVadministrasi
p603
aVenjoy
p604
aVnaughty
p605
aVnumhiivroaqq
p606
aVsiconacional
p607
aVwash
p608
aVidofrnumwnumf
p609
aVwlrhnumopksv
p610
aVkfc
p611
aVphotoofthenight
p612
aVsober
p613
aVmikedrewphoto
p614
aVthick
p615
aVballin
p616
aVinstagram
p617
aVmercury
p618
aVgerwqsynjq
p619
aVtoy
p620
aVkyqnumbemvyz
p621
aVservice
p622
aVlego
p623
aVeldifonso
p624
aVtop
p625
aVyzqnumxipkmx
p626
aVznumnoocnumzlc
p627
aVfiction
p628
aVtnumeclkxsxg
p629
aVtok
p630
aVmaster
p631
aVtom
p632
aVthwmlvkrnumt
p633
aVtrend
p634
aVjohn
p635
aVgenesis
p636
aVtnctowyvvc
p637
aVlisten
p638
aVzmrculuadr
p639
aVstuffed
p640
aVgfyllnumhbiv
p641
aVsfnumjvssdynum
p642
aVwestern
p643
aVnahh
p644
aVekiucxmtwnum
p645
aVmzbrsrxnql
p646
aVtoronto
p647
aVkhalda
p648
aVtavern
p649
aVcoward
p650
aVmmda
p651
aVtree
p652
aVrusty
p653
aVnewzealand
p654
aVshower
p655
aVstreet
p656
aVfriend
p657
aVewovkiznumbi
p658
aVxfivndnenumi
p659
aVdesign
p660
aVhangingbridge
p661
aVfeeling
p662
aVrealestate
p663
aVeste
p664
aVekhkzwcnumwa
p665
aVboston
p666
aVmodern
p667
aVmind
p668
aVmine
p669
aVginger
p670
aVfandom
p671
aVsilverclaw
p672
aVrat
p673
aVrydpnumijqzo
p674
aVnqcelvonumnu
p675
aVlula
p676
aVbookbloggers
p677
aVhentai
p678
aVshiatsu
p679
aVjotafm
p680
aVtho
p681
aVviktor
p682
aVfirstteacher
p683
aVsnow
p684
aVkaya
p685
aVbrandon
p686
aVtinumwxnumxnumtn
p687
aVnygnumgkekal
p688
aVreina
p689
aVpilgrimage
p690
aVnightsky
p691
aVwmulrhqoanum
p692
aVbebby
p693
aVdesse
p694
aVprincess
p695
aVermita
p696
aVinspirational
p697
aVpeoplescreatives
p698
aVthough
p699
aViceland
p700
aVnadiaaa
p701
aVvictoria
p702
aVkelly
p703
aVmayoralty
p704
aVcornwall
p705
aVplenty
p706
aVtbruwlakqz
p707
aVnumniteneed
p708
aVnumwdwqvkeup
p709
aVmaria
p710
aVzealand
p711
aVurukenjxwo
p712
aVepisode
p713
aVspecial
p714
aVducai
p715
aVmedical
p716
aVabg
p717
aVm
p718
aVdog
p719
aVcrabbypatty
p720
aVdefinitely
p721
aVtech
p722
aVpineapple
p723
aVnumpuvlnumqvtz
p724
aVscream
p725
aVasthnumgaazi
p726
aVmarvel
p727
aVpumumunta
p728
aVpria
p729
aVcigfnumhhrsnum
p730
aVrandom
p731
aVarpnumwebknumv
p732
aVboaco
p733
aVcrathes
p734
aVrowena
p735
aVforsure
p736
aVradio
p737
aVpeston
p738
aVpangkatnya
p739
aVsundial
p740
aVparang
p741
aVaustralian
p742
aVjuly
p743
aVdandenong
p744
aVbusy
p745
aVgracious
p746
aVbucket
p747
aVacne
p748
aVboleh
p749
aVigkjmnkuqh
p750
aVlodge
p751
aVrice
p752
aVsur
p753
aVdo
p754
aVdm
p755
aVdj
p756
aVfossil
p757
aVdispla
p758
aVminionsatmcdo
p759
aVstow
p760
aVstop
p761
aVphotograph
p762
aVcgkwmbbtdw
p763
aVda
p764
aVkotone
p765
aVguatemala
p766
aVdeephouse
p767
aVnkznumcgunumfw
p768
aVwedding
p769
aVreport
p770
aVkxnumobbppmw
p771
aVtyco
p772
aVnumypxrcdsdc
p773
aVunfortunately
p774
aVbar
p775
aVvsnumqufbnumoy
p776
aVmixxtnumqaj
p777
aVbem
p778
aVuznumygxofrnum
p779
aVbay
p780
aVwhitefish
p781
aVbag
p782
aVbad
p783
aVbae
p784
aVbuat
p785
aVenchant
p786
aVlepastu
p787
aVupwards
p788
aVthanks
p789
aVrespond
p790
aVpnw
p791
aVmarikina
p792
aVlovewhatyoudo
p793
aVnut
p794
aVqbnmanovbk
p795
aVnur
p796
aVsage
p797
aVbagatsing
p798
aVqjsgcvqvjf
p799
aVantiaging
p800
aVwjihfnumqlimlaugh
p801
aVengjhcsznumf
p802
aVqnynpbjnumhy
p803
aVvscoph
p804
aVscrap
p805
aVsail
p806
aVjiunumfdbqgo
p807
aVdetektorfm
p808
aVperasaan
p809
aVsair
p810
aValbertaisbeautiful
p811
aVhopefully
p812
aVtgktcotcki
p813
aVhpoxyflhqs
p814
aVewaerhioqnum
p815
aVpirate
p816
aVbeautyshe
p817
aVvnjlnumhrfxn
p818
aVwarrior
p819
aVcheck
p820
aVnever
p821
aVomg
p822
aVomf
p823
aVwa
p824
aVnature
p825
aVfetty
p826
aVlnumanynumdcqn
p827
aVhowever
p828
aVwi
p829
aVvernon
p830
aVcut
p831
aVwear
p832
aVmedallion
p833
aVdowngrade
p834
aVcousin
p835
aVbuybohnumvre
p836
aVnumiinnumwxcwe
p837
aVbwtfetnumqcr
p838
aVyxjvgtwxnumt
p839
aVprotect
p840
aVaccident
p841
aVcou
p842
aVxmfnumcnumssza
p843
aVcountry
p844
aVill
p845
aVcup
p846
aViwunummttgps
p847
aVcmcwhjhnumyx
p848
aVuna
p849
aVelse
p850
aVbookcase
p851
aVcod
p852
aVhvhibmgnumuy
p853
aVstudio
p854
aVcom
p855
aVschafer
p856
aVcon
p857
aVlanterna
p858
aVtimehop
p859
aVxtnumwbpdnumy
p860
aVnnumminumoazm
p861
aVlqfeccnumdan
p862
aVyorkville
p863
aVheight
p864
aVperiscope
p865
aVyajayra
p866
aVxrwlynumthoo
p867
aVknumjqjhnumanh
p868
aVniyo
p869
aVrainer
p870
aVconference
p871
aVlighthouse
p872
aVtint
p873
aVayam
p874
aVsam
p875
aVbilling
p876
aVnumpm
p877
aVzviwnnumsnuma
p878
aVkktv
p879
aVthree
p880
aValistair
p881
aVrevent
p882
aVkkdwmenumrqk
p883
aVbeer
p884
aVmuch
p885
aVputa
p886
aVthe_lod
p887
aVinterest
p888
aVturnt
p889
aVhalerbaler
p890
aVlovely
p891
aVwgruipnumrug
p892
aVnumpx
p893
aVqsvshulwcx
p894
aVlife
p895
aVhsfktbrent
p896
aVnsljuhnumuef
p897
aVrelaxing
p898
aVeastern
p899
aVjgmocapnumqr
p900
aVnightcore
p901
aVxxx
p902
aVsooooo
p903
aVdaynum
p904
aVdave
p905
aVlift
p906
aVchild
p907
aVcatch
p908
aVdaughter
p909
aVauroral
p910
aVznumpkegdgxf
p911
aVeskom
p912
aVwildcat
p913
aVeast
p914
aVistana
p915
aVahead
p916
aVtang
p917
aVfallon
p918
aVintan
p919
aVkentucky
p920
aVn
p921
aVdept
p922
aVnear
p923
aVsuppose
p924
aVbaletetree
p925
aVnaomedenait
p926
aVtorment
p927
aVpinolera
p928
aVbalance
p929
aVstudy
p930
aVqofmkrewnumo
p931
aVltnum
p932
aVip
p933
aVoswego
p934
aVauroradingalan
p935
aVhdfnumhnumowqg
p936
aVshame
p937
aVcant
p938
aVil
p939
aVcong
p940
aVviolin
p941
aVaicaoyinumpnum
p942
aVybefnumqujnumn
p943
aVid
p944
aVig
p945
aVfiquei
p946
aVmemorial
p947
aVagresi
p948
aVportobello
p949
aVbelle
p950
aVmake
p951
aVxfuinumivqyb
p952
aVbella
p953
aVbeside
p954
aVdiguisit
p955
aVgtmqvrrvcl
p956
aVbid
p957
aVmentor
p958
aVrxaknumypnumar
p959
aVmoose
p960
aVwheninbaler
p961
aVdanita
p962
aVwolfeboro
p963
aVeverett
p964
aVklnnummpqb
p965
aVhang
p966
aVkit
p967
aVenumgpcimbnump
p968
aVopportunity
p969
aVtune
p970
aVkid
p971
aVbutter
p972
aVvermont
p973
aVhwfvinumdhty
p974
aVthx
p975
aVkecfbnawunum
p976
aVepisodio
p977
aVyoure
p978
aVlomond
p979
aVihydxugnumo
p980
aVacademic
p981
aVunumobrsjrj
p982
aVyfbyilnumpnumw
p983
aVmaadi
p984
aVnumnnumaymnumdpnum
p985
aVroma
p986
aVnumubnumrjqahc
p987
aValivevisit
p988
aVjean
p989
aVparasapagbabago
p990
aVtrainer
p991
aVqvnanumsorqd
p992
aVlakemendota
p993
aVsentence
p994
aVfjnumhvahpmy
p995
aVedmonton
p996
aVyeg
p997
aVnwnum
p998
aVvendo
p999
aVvictim
p1000
aVseftonhour
p1001
aVyes
p1002
aVnumhrs
p1003
aVbqdtzypjpi
p1004
aVxaqjnumqnumjcz
p1005
aVrepost
p1006
aVattachmentmissing
p1007
aVnvxnumtfm
p1008
aVcandidate
p1009
aVaberdeenshire
p1010
aVphotographer
p1011
aVgwnumernumugynum
p1012
aVgznumtmdembnum
p1013
aVsometimes
p1014
aVjules
p1015
aVpangeran
p1016
aVboard
p1017
aVeasy
p1018
aVebaykix
p1019
aVsave
p1020
aVmaging
p1021
aVpqbhnumyqs
p1022
aVteamryley
p1023
aVdeux
p1024
aVboxelder
p1025
aVsussex
p1026
aVpossible
p1027
aVcosmetic
p1028
aVpossibly
p1029
aVjonsson
p1030
aVeastofyeg
p1031
aVgovt
p1032
aVcape
p1033
aVleveroni
p1034
aVyxiejxjnumdl
p1035
aVstargazer
p1036
aVapart
p1037
aVbro
p1038
aVgift
p1039
aVinstagrammers
p1040
aVdistrito
p1041
aVhunt
p1042
aVnumygvvnumnwtj
p1043
aVteeki
p1044
aVdreamphones
p1045
aVofficer
p1046
aVthanet
p1047
aVsecurity
p1048
aVyfsvnumftbnump
p1049
aVfunumsnumwenum
p1050
aVdraw
p1051
aVfirefly
p1052
aVqnumztunumfor
p1053
aVright
p1054
aVold
p1055
aVcreek
p1056
aVcrowd
p1057
aVpeople
p1058
aVbegin
p1059
aVpsnumrbdcyunum
p1060
aVboro
p1061
aVjupiter
p1062
aVtrombone
p1063
aVmatrichardson
p1064
aVradiohead
p1065
aVtheyre
p1066
aVcreep
p1067
aVwoodcock
p1068
aVbottom
p1069
aVmaghiking
p1070
aVnummy
p1071
aVdinadiawan
p1072
aVnansglams
p1073
aVice
p1074
aVcreative
p1075
aVnummb
p1076
aVfoe
p1077
aVheredia
p1078
aVuma
p1079
aVcomemorar
p1080
aVcna
p1081
aVimpulsada
p1082
aVfoo
p1083
aVadorable
p1084
aVjugador
p1085
aVdia
p1086
aVvnumdainumwwf
p1087
aVcore
p1088
aVsherman
p1089
aVpeel
p1090
aVdunkin
p1091
aVextraordinaire
p1092
aVpose
p1093
aVplz
p1094
aVcork
p1095
aVdicasalarin
p1096
aVxnumljzxwpnumb
p1097
aVnewmarket
p1098
aVxiomdnumhg
p1099
aVoabnumrfygtp
p1100
aVkhan
p1101
aVpost
p1102
aVquezon
p1103
aVebaymotors
p1104
aVaxwnumbwnumnf
p1105
aVnowplaying
p1106
aVplunumnpqnumwc
p1107
aVinjure
p1108
aVvscophile
p1109
aVpalisade
p1110
aVo
p1111
aValgu
p1112
aVqfmefqnumnbnum
p1113
aVdespair
p1114
aVafternoon
p1115
aVhorizon
p1116
aVsaliendo
p1117
aVslightly
p1118
aVfoxnum
p1119
aVmaravilhosa
p1120
aVfaint
p1121
aVwhats
p1122
aVyobdrcitnb
p1123
aVcivil
p1124
aVnumletter
p1125
aVselfie
p1126
aVpnumklijnummw
p1127
aVsoo
p1128
aVson
p1129
aVmantua
p1130
aVboom
p1131
aVbravekirchernum
p1132
aVsou
p1133
aVaguinaldo
p1134
aVnumkmnummedspa
p1135
aVacpqtsnumtiz
p1136
aVnovo
p1137
aVhallo
p1138
aVzwldnnumvxme
p1139
aVdeal
p1140
aVuxjiskwxyo
p1141
aVwag
p1142
aVmothership
p1143
aVsupport
p1144
aVgif
p1145
aVanderson
p1146
aVtamy
p1147
aVlagi
p1148
aVjane
p1149
aVmusic
p1150
aVwat
p1151
aVcldy
p1152
aVwar
p1153
aVwaubonsie
p1154
aVwap
p1155
aVhead
p1156
aVmedium
p1157
aVform
p1158
aVforming
p1159
aVtrus
p1160
aVknumtpmnumvdz
p1161
aVpeninsula
p1162
aVcubao
p1163
aVhear
p1164
aVasawnumjdavt
p1165
aVdipaculao
p1166
aVdjfsafudlb
p1167
aVtasmania
p1168
aVstand
p1169
aVfort
p1170
aVcnumvqsnbnvl
p1171
aVhappen
p1172
aVwhyy
p1173
aVauroraalert
p1174
aVinside
p1175
aVhulinghiritsataginitnum
p1176
aVisang
p1177
aVnwsswpc
p1178
aVcrystal
p1179
aVgedung
p1180
aVhqnumnqcrwed
p1181
aVgraffitart
p1182
aVcosmos
p1183
aVdaddy
p1184
aVbckxwlnnumfm
p1185
aVjnumzisnumleynum
p1186
aVbrimley
p1187
aVrugbytexas
p1188
aVlater
p1189
aVhamr
p1190
aVclassic
p1191
aVtoss
p1192
aVabstract
p1193
aVtournament
p1194
aVkansas
p1195
aVdrive
p1196
aVfngnumxnumlnumpq
p1197
aVsometime
p1198
aVacclaimed
p1199
aVawhile
p1200
aVsalamat
p1201
aVsubmnumxjrxk
p1202
aVzamboanga
p1203
aVshit
p1204
aVphysical
p1205
aVnh
p1206
aVtarde
p1207
aVtix
p1208
aVonlyinmn
p1209
aVfloor
p1210
aVglacier
p1211
aVna
p1212
aVnb
p1213
aVtonightif
p1214
aVhandmade
p1215
aVne
p1216
aVauroraballnum
p1217
aVng
p1218
aVwher
p1219
aVlsvwghdapa
p1220
aVfaux
p1221
aVinterested
p1222
aVulloa
p1223
aVmantion
p1224
aVdigital
p1225
aVwowwwww
p1226
aVkemang
p1227
aVdiscount
p1228
aVkuouocxzho
p1229
aVnw
p1230
aVpicture
p1231
aVredbridgetonepiece
p1232
aVnumlobmoimvl
p1233
aVvaotnumftdbr
p1234
aVput
p1235
aVfelt
p1236
aVupdate
p1237
aVcoronal
p1238
aVyellowstone
p1239
aVnmpvenumryaj
p1240
aVstoke
p1241
aVweekend
p1242
aVnumk
p1243
aVbduvenumldio
p1244
aVqtnummnumnkf
p1245
aVdomingo
p1246
aVcustomerservice
p1247
aVphone
p1248
aVassume
p1249
aVnormally
p1250
aVhuron
p1251
aVgnnoglqvgw
p1252
aVpurple
p1253
aVckpasienumtc
p1254
aVlyunumhmunum
p1255
aVrainier
p1256
aVsnipe
p1257
aVserious
p1258
aVlineup
p1259
aVstick
p1260
aVekuoixjlca
p1261
aVrom
p1262
aVkita
p1263
aVdance
p1264
aVfox
p1265
aVrob
p1266
aVvwwenumfwxvw
p1267
aVfocus
p1268
aVhawaii
p1269
aVejjpbngnumtnum
p1270
aVdisturbance
p1271
aVmanager
p1272
aVmile
p1273
aVcleeve
p1274
aVskin
p1275
aVbattle
p1276
aVshot
p1277
aVbangunkan
p1278
aVprimer
p1279
aVdavao
p1280
aVdiciembre
p1281
aVabisko
p1282
aVrow
p1283
aVviolinist
p1284
aVpouco
p1285
aVver
p1286
aVenumfcqfyqhk
p1287
aVzone
p1288
aVeverything
p1289
aVflash
p1290
aVfather
p1291
aVworth
p1292
aVjjnumemngrlj
p1293
aVfinally
p1294
aVzpdnumsipxtnum
p1295
aVwed
p1296
aVjunio
p1297
aVkanashimi
p1298
aVthingie
p1299
aVsouthwest
p1300
aVshoot
p1301
aVgrill
p1302
aVwhyleelanau
p1303
aVnjmbvfraqt
p1304
aVspringer
p1305
aVchoice
p1306
aVmga
p1307
aVnyvupcnumanv
p1308
aVconvict
p1309
aVword
p1310
aVblast
p1311
aVanne
p1312
aVminute
p1313
aVnumvnumonumiosmf
p1314
aVdim
p1315
aVgua
p1316
aVrespiratory
p1317
aVlifeofanartist
p1318
aVdie
p1319
aVbeahero
p1320
aVaccidentally
p1321
aVcloudy
p1322
aVchristmas
p1323
aVleave
p1324
aVp
p1325
aVtnumbglwnumrnumz
p1326
aVsettle
p1327
aVmabtrnumuvjc
p1328
aVteam
p1329
aVguy
p1330
aVround
p1331
aVbonfire
p1332
aVhighsociety
p1333
aVexcite
p1334
aVmn
p1335
aVvilla
p1336
aVzealandmaynum
p1337
aVminion
p1338
aVsigh
p1339
aVmzkpxvwmrnum
p1340
aVdiscover
p1341
aVsign
p1342
aVblue
p1343
aVofywrxnumbis
p1344
aVnumyearold
p1345
aVsheeran
p1346
aVrear
p1347
aVnzst
p1348
aVbodnumrnumqfkp
p1349
aVyang
p1350
aVcanteven
p1351
aVcurse
p1352
aVcahnumbnumvonumw
p1353
aVappear
p1354
aVmarathontraining
p1355
aVassistance
p1356
aVufo
p1357
aVxfiles
p1358
aVenumpwzqsmue
p1359
aVinternational
p1360
aVdbwdvnumqhss
p1361
aVaint
p1362
aVcomecei
p1363
aVnumstahtxnumlj
p1364
aVkynumhftkedg
p1365
aVslaying
p1366
aVmakeup
p1367
aVfrench
p1368
aVmulock
p1369
aVwater
p1370
aVdbanummnumjys
p1371
aVhamradio
p1372
aVallaiandkim
p1373
aVspghcntrdv
p1374
aVkamu
p1375
aValone
p1376
aValong
p1377
aVuhvinumtrslnum
p1378
aVphunumiganumznum
p1379
aVchange
p1380
aVwait
p1381
aVbox
p1382
aVboy
p1383
aVsausalito
p1384
aVcuckoo
p1385
aVthrasher
p1386
aVbrilliant
p1387
aVhbd
p1388
aVdublin
p1389
aVunited
p1390
aVproud
p1391
aVjftijuexvp
p1392
aVtrial
p1393
aVmolto
p1394
aVyankiz
p1395
aVboo
p1396
aVusually
p1397
aVhospitality
p1398
aVbob
p1399
aVhijitus
p1400
aVkimmy_paigenum
p1401
aVaraneta
p1402
aVugh
p1403
aVbreathtaking
p1404
aVextra
p1405
aVwhitevery
p1406
aVnovia
p1407
aVitaliano
p1408
aVgilford
p1409
aVnummvvfdnumynum
p1410
aVitnmkcejid
p1411
aVsszknumznumnfn
p1412
aVislet
p1413
aVyeeuuussss
p1414
aVmarket
p1415
aVyzvcjuhvor
p1416
aVvivid
p1417
aVlose
p1418
aVmustvisit
p1419
aVpero
p1420
aVlive
p1421
aVbz
p1422
aVmemory
p1423
aVcalgary
p1424
aVblack
p1425
aVjarlnumcfwib
p1426
aVthru
p1427
aVtqesndznumanum
p1428
aVwicked
p1429
aVroundup
p1430
aVxhnumcnumdljvnum
p1431
aVclub
p1432
aVooo
p1433
aVoregon
p1434
aVnumtinumxtnumn
p1435
aVdowntown
p1436
aVrarity
p1437
aVlong
p1438
aVumagang
p1439
aVvintagejewelry
p1440
aVop
p1441
aVfly
p1442
aVzushaleo
p1443
aVnumjkfasyjlnum
p1444
aVanything
p1445
aVmnumtnumsnum
p1446
aVsjvinumbhvlo
p1447
aVcar
p1448
aVflu
p1449
aVsoul
p1450
aVcat
p1451
aVycmxnummqiez
p1452
aVfqynumbnbknumq
p1453
aViwnumnnumzsnumml
p1454
aVlvdnumrjxhzk
p1455
aVgopro
p1456
aVarrive
p1457
aVxbxtcmrnumf
p1458
aVheart
p1459
aVcrazy
p1460
aVtirar
p1461
aVfigure
p1462
aVpredict
p1463
aVawesome
p1464
aVfuck
p1465
aVperder
p1466
aVheard
p1467
aVsnumjtztunumgnum
p1468
aVsurround
p1469
aVamyujpggrn
p1470
aVari
p1471
aVyet
p1472
aVoccur
p1473
aVpink
p1474
aVawwww
p1475
aVwinter
p1476
aVnumrd
p1477
aVsemiprecious
p1478
aVndpqbbbylnum
p1479
aVtogethergtgt
p1480
aVdinner
p1481
aVlunchie
p1482
aVtill
p1483
aVsunday
p1484
aVvancouver
p1485
aVfps
p1486
aVtile
p1487
aVcoleman
p1488
aVnya
p1489
aVpuro
p1490
aVmichigan
p1491
aVseattlefree
p1492
aVmap
p1493
aVproduct
p1494
aVmar
p1495
aVmau
p1496
aVmat
p1497
aVivownbbdqn
p1498
aVnumenumxnumpvnumjnum
p1499
aVmax
p1500
aVwonderful
p1501
aVspot
p1502
aVdazzle
p1503
aVywnrqzaruc
p1504
aVdnumhnqlnumwgt
p1505
aVfalava
p1506
aVmad
p1507
aVend
p1508
aVfilthy
p1509
aVgrow
p1510
aVunbelievably
p1511
aVgrou
p1512
aVsorgera
p1513
aVnonna
p1514
aVnatural
p1515
aVremember
p1516
aVthankyouforeverything
p1517
aVmaybe
p1518
aVgoal
p1519
aVatleastitgetsdark
p1520
aVqadqtqcqnum
p1521
aVsu
p1522
aVst
p1523
aVsk
p1524
aVneng
p1525
aVsm
p1526
aVapril
p1527
aVsc
p1528
aVnumvhlnnumif
p1529
aVsa
p1530
aVnixon
p1531
aVse
p1532
aVsd
p1533
aVcute
p1534
aVbastos
p1535
aVnlcs
p1536
aVsmittys
p1537
aVkailangan
p1538
aVolga
p1539
aVnumunumfwnao
p1540
aVspacewx
p1541
aVhiring
p1542
aVlyric
p1543
aVshake
p1544
aVixbhoidfkx
p1545
aVwinehouse
p1546
aVcold
p1547
aVboreal
p1548
aVworship
p1549
aVwinne
p1550
aVpolice
p1551
aVthank
p1552
aVmais
p1553
aVgeo
p1554
aVfeamnumbfinumo
p1555
aVwindow
p1556
aVpnumarronumyi
p1557
aVveneza
p1558
aVthanx
p1559
aVnemenin
p1560
aVnumnfhnumenumrcd
p1561
aVnorway
p1562
aVfknumbnumtrhnumk
p1563
aVtexas
p1564
aVsundog
p1565
aVanumawqeqnumgnum
p1566
aVkiller
p1567
aVmaior
p1568
aVnation
p1569
aVunderneath
p1570
aVlunch
p1571
aVkanina
p1572
aVadrenaline
p1573
aVnoras
p1574
aVcst
p1575
aVqu
p1576
aVreckoning
p1577
aVtwilight
p1578
aVhall
p1579
aVhalo
p1580
aVname
p1581
aVsolkissed
p1582
aVnbmnumynumdpqb
p1583
aVjames
p1584
aVdrop
p1585
aVhillsboro
p1586
aVemannumydwqv
p1587
aVfabian
p1588
aVlnumjnumdottfx
p1589
aVbajando
p1590
aVrock
p1591
aVshowcasing
p1592
aVjanuari
p1593
aVshaftesbury
p1594
aVyhxwhubxlz
p1595
aVturtle
p1596
aVel
p1597
aVbusty
p1598
aVsquare
p1599
aVtiverton
p1600
aVkang
p1601
aVkailua
p1602
aVea
p1603
aVplant
p1604
aVnakadisappoint
p1605
aVeb
p1606
aVunlock
p1607
aVgterpwtnumo
p1608
aVyear
p1609
aVeu
p1610
aVet
p1611
aVaurorathis
p1612
aVep
p1613
aVes
p1614
aVcanada
p1615
aVnewyork
p1616
aVlaida
p1617
aVjogja
p1618
aVspace
p1619
aVoklahoma
p1620
aVpoco
p1621
aVstoryofmylife
p1622
aVkent
p1623
aVpizzeria
p1624
aVoreoscoptes
p1625
aVsweet
p1626
aVlovjtwswxm
p1627
aVunumlhffpnumd
p1628
aVbkxnumbcunumqb
p1629
aVyscqnumxonumpu
p1630
aVnumxqxrniee
p1631
aVglimps
p1632
aVstate
p1633
aVsheffield
p1634
aVmillion
p1635
aVcart
p1636
aVquite
p1637
aVargh
p1638
aVewcnumqeena
p1639
aVcalifornia
p1640
aVbesides
p1641
aVgrandma
p1642
aVmarine
p1643
aVtonightimpressive
p1644
aVunderwear
p1645
aVluego
p1646
aVflare
p1647
aVqnumgynumcjvr
p1648
aVpnumfrryuhpp
p1649
aVkzennumwhoag
p1650
aVtbt
p1651
aVthing
p1652
aVfc
p1653
aVplace
p1654
aVaboard
p1655
aVlohmnumzcss
p1656
aVcdikbnumdpo
p1657
aVcharleston
p1658
aVaxbhmnumrwfi
p1659
aVthink
p1660
aVlay
p1661
aVxsnumaqeowhy
p1662
aVxi
p1663
aVsaving
p1664
aVsepanx
p1665
aVeons
p1666
aVlone
p1667
aVwave
p1668
aVowmauvuixc
p1669
aVcrib
p1670
aVone
p1671
aVjhnatojroa
p1672
aVamidst
p1673
aVdirectly
p1674
aVnumm
p1675
aVvote
p1676
aVring
p1677
aVopen
p1678
aVtomorrow
p1679
aVsize
p1680
aVsweetnihoney
p1681
aVlittle
p1682
aVboulevard
p1683
aVwrath
p1684
aVdistrict
p1685
aVv
p1686
aVxsfasznumipn
p1687
aVfl
p1688
aVcaught
p1689
aVanyone
p1690
aVnumiisnumztzyk
p1691
aVescort
p1692
aVminnewanka
p1693
aVwhite
p1694
aVcirca
p1695
aVpicoftheday
p1696
aVwilliams
p1697
aVcvnumlfhxlc
p1698
aVgoxsfqydum
p1699
aVarrviing
p1700
aVsummertime
p1701
aVmostly
p1702
aVhum
p1703
aVhappymeal
p1704
aVbalde
p1705
aValan
p1706
aVmassager
p1707
aVharbour
p1708
aValas
p1709
aVhartford
p1710
aVzxmcvkmyhf
p1711
aVharli
p1712
aVmnwx
p1713
aVprobably
p1714
aVgrunt
p1715
aVholder
p1716
aVnorcal
p1717
aVanum
p1718
aVwide
p1719
aVjbxtdbiaen
p1720
aVlmao
p1721
aVoptimism
p1722
aVyamamura
p1723
aVfuture
p1724
aVnumvqxsjdxzp
p1725
aVventure
p1726
aVusfnummekae
p1727
aVnofilter
p1728
aVgathering
p1729
aVsao
p1730
aVsan
p1731
aVangel
p1732
aVsumptuous
p1733
aVano
p1734
aVmarijuana
p1735
aVnummiles
p1736
aVsad
p1737
aVauroras
p1738
aVsay
p1739
aVcpingnumfxe
p1740
aVnlnumjhnumkjqb
p1741
aVgreet
p1742
aVbreakfast
p1743
aVresqu
p1744
aVkevin
p1745
aVpenuh
p1746
aVnumanumaooncfnum
p1747
aVxjmiyhfvnuml
p1748
aVuagistnumogd
p1749
aVfucking
p1750
aVnumqxmkoxeku
p1751
aViwpmamnkmi
p1752
aVterrific
p1753
aVideal
p1754
aVtake
p1755
aVmrnumtxnumrkrnum
p1756
aVuerhnqkxnumb
p1757
aVperformance
p1758
aVlgehmykwlc
p1759
aVdilasag
p1760
aVsantiago
p1761
aVsure
p1762
aVpain
p1763
aVnumeernumsrap
p1764
aVtrack
p1765
aVbimhrmqlnumi
p1766
aVprice
p1767
aVwnqivarnumknum
p1768
aVcerdas
p1769
aVaksnes
p1770
aVtimelapsetuesday
p1771
aVcwpxgdchyr
p1772
aVskinner
p1773
aVmarysville
p1774
aVknee
p1775
aVnummph
p1776
aVthziodfbtt
p1777
aVapgnumfhosqx
p1778
aVforever
p1779
aVviewable
p1780
aVespecially
p1781
aVdiversity
p1782
aVnumxxgdnhphm
p1783
aVshooter
p1784
aVfilly
p1785
aVbulan
p1786
aVartforsale
p1787
aVsunset
p1788
aVufunumuqtyxh
p1789
aVinvermere
p1790
aVtendencia
p1791
aVhedgehog
p1792
aVsalt
p1793
aVdelimont
p1794
aVshop
p1795
aVpenumvczcxsb
p1796
aVolha
p1797
aVko
p1798
aVicelan
p1799
aVshiva
p1800
aVucglmwnumvst
p1801
aVcheap
p1802
aVinspiredfromtimephotography
p1803
aVfinalmente
p1804
aVbright
p1805
aVtherapist
p1806
aVshoe
p1807
aVybnumtvrtntj
p1808
aVcorner
p1809
aVmamayang
p1810
aVxnumtziynumgc
p1811
aVdata
p1812
aVmaine
p1813
aVnumcgnumtwljj
p1814
aVground
p1815
aVslot
p1816
aVcrnumppnumjtnumx
p1817
aVtillsonburg
p1818
aVslow
p1819
aVytydvmovkg
p1820
aVnpmgpyzwpf
p1821
aVbenedictine
p1822
aVdeck
p1823
aVenough
p1824
aVouvir
p1825
aVprdwzunumwum
p1826
aVinternacional
p1827
aVfickle
p1828
aVair
p1829
aVnumompyeakxj
p1830
aVsnip
p1831
aVkamloops
p1832
aVwool
p1833
aVynumzoqyedoy
p1834
aVfirst
p1835
aVbridge
p1836
aVnumlbnumvwonumsj
p1837
aVbmaqwfdujx
p1838
aVgeovani
p1839
aVqimgozjaenum
p1840
aVstay
p1841
aVassistant
p1842
aVnummppwcqp
p1843
aVtruly
p1844
aVwoodburn
p1845
aVcannot
p1846
aVoutlet
p1847
aVrnumlnumacawhv
p1848
aVnumxlnuminonumr
p1849
aVlaguna
p1850
aVgen
p1851
aVreemiiinum
p1852
aVreveal
p1853
aVtimepiece
p1854
aVhizons
p1855
aVinch
p1856
aVnumjnnumnkzq
p1857
aVartist
p1858
aVhamilton
p1859
aVkgybszatunum
p1860
aVstupid
p1861
aVyrklahwyew
p1862
aVxmonwqxnuminum
p1863
aVnumst
p1864
aVpendant
p1865
aVrecife
p1866
aVtent
p1867
aVjolimi
p1868
aVtffrnumsupcr
p1869
aVphysically
p1870
aVmedidor
p1871
aVquando
p1872
aVjatinangor
p1873
aVrnumoxdnumxanumm
p1874
aVisabel
p1875
aVactively
p1876
aVcollege
p1877
aVnumpwafrotb
p1878
aVsport
p1879
aVbummer
p1880
aVdiver
p1881
aVwonder
p1882
aVkvgxzujysi
p1883
aVnumdowanumkbf
p1884
aVzkxnummcumop
p1885
aVpnumfvagafoc
p1886
aVisnxenumjrgz
p1887
aVciptadi
p1888
aVfederal
p1889
aVavenue
p1890
aVaeropuerto
p1891
aVamen
p1892
aVbqnumrnumvnuma
p1893
aVthurs
p1894
aVforecast
p1895
aVslnumk
p1896
aVpump
p1897
aVporteau
p1898
aVgosurf
p1899
aVacross
p1900
aVnakikita
p1901
aVspringbank
p1902
aVaffordable
p1903
aVuk
p1904
aVcomp
p1905
aVscreen
p1906
aVnqzrmnxnzd
p1907
aVmkrqpldwje
p1908
aVnaimee
p1909
aVwhoa
p1910
aVcomo
p1911
aVpresas
p1912
aVmitsuru
p1913
aVznumpivprmiv
p1914
aValgdnumbsxhg
p1915
aVnumbpuloujnu
p1916
aVrugby
p1917
aVmany
p1918
aVregion
p1919
aVquiet
p1920
aVredux
p1921
aVmana
p1922
aVtour
p1923
aVsummt
p1924
aVfpfxnumqzah
p1925
aVpicard
p1926
aVraiar
p1927
aVqgebanumcedm
p1928
aVreallifesearcy
p1929
aVagghhhhh
p1930
aVallowance
p1931
aVconcert
p1932
aVamong
p1933
aVfi
p1934
aVellesmere
p1935
aVcancer
p1936
aVdistancia
p1937
aVzwjdnumbhudl
p1938
aVankdfirgfd
p1939
aVditumabo
p1940
aVpor
p1941
aVdesignshirt
p1942
aVchristie
p1943
aVevent
p1944
aVslain
p1945
aVmnumjgmeinumek
p1946
aVufnopbwkjnum
p1947
aVcancel
p1948
aVsenum
p1949
aVboat
p1950
aVteamlove
p1951
aVgoprohole
p1952
aVunusual
p1953
aVddawpqzzwi
p1954
aVchad
p1955
aVbanana
p1956
aVwest
p1957
aVlocally
p1958
aVvacation
p1959
aVluft
p1960
aVarte
p1961
aVhezsnumigciq
p1962
aVmarr
p1963
aVpessoa
p1964
aVrenewables
p1965
aVmary
p1966
aVdirection
p1967
aVbypass
p1968
aVnumdvvdnumkcmj
p1969
aVauucnumbnumhwnum
p1970
aVthousand
p1971
aVffywamzqyp
p1972
aVnikon
p1973
aVobbjnumgnumjnum
p1974
aVdramatic
p1975
aVwake
p1976
aVsaison
p1977
aVbryson
p1978
aVadderallhadme
p1979
aVformer
p1980
aVsound
p1981
aVddnumbnumboefy
p1982
aVklaus
p1983
aVnumwzzpgwdinum
p1984
aVybnumpnumndnumx
p1985
aVmount
p1986
aVbaramppiadineria
p1987
aVvalero
p1988
aVcast
p1989
aVongoing
p1990
aVheadsup
p1991
aVresidence
p1992
aVkahapon
p1993
aVfim
p1994
aVspotlight
p1995
aVstartalk
p1996
aVive
p1997
aVgexnumdnumjqde
p1998
aVdnumugooucph
p1999
aVlowtide
p2000
aVmarcel
p2001
aVcluster
p2002
aVbiar
p2003
aVevening
p2004
aVuwgsilnumrmh
p2005
aVoldsmobile
p2006
aVclip
p2007
aVtwista
p2008
aVbeaver
p2009
aVfnumasolnfnumg
p2010
aVtechnology
p2011
aVfame
p2012
aVpap
p2013
aVpar
p2014
aVenumqjjnumuhk
p2015
aVprojector
p2016
aVthrowbackthursday
p2017
aVauthor
p2018
aVsama
p2019
aVnighter
p2020
aVrynjklvwnn
p2021
aVgelding
p2022
aVya
p2023
aVbluedaisyclassics
p2024
aVmanila
p2025
aVpag
p2026
aVmtkisylynumx
p2027
aVweek
p2028
aVnumkms
p2029
aVxfnumsinumfry
p2030
aVpersona
p2031
aVni
p2032
aVlapointe
p2033
aVrunumjishbqs
p2034
aVdirector
p2035
aVfycyzinumkhb
p2036
aVjnumpbmehnzm
p2037
aVwired
p2038
aVyjwhqnumlt
p2039
aVnl
p2040
aVweep
p2041
aVmentally
p2042
aVokezonlnumtk
p2043
aVcosta
p2044
aVlauroras
p2045
aVnumymnumfdxnumpl
p2046
aVband
p2047
aVbrill
p2048
aVyha
p2049
aVwellington
p2050
aVknow
p2051
aVdjujycwyez
p2052
aVsevere
p2053
aVakademika
p2054
aVglorious
p2055
aVbottle
p2056
aVtherapy
p2057
aVmodel
p2058
aVtechhouse
p2059
aVsummer
p2060
aVitohahahhaha
p2061
aVaffair
p2062
aVwrdszfrots
p2063
aVtip
p2064
aVarmour
p2065
aValiensnum
p2066
aVpessoalmente
p2067
aVwnumbanumweapr
p2068
aVexploreyxe
p2069
aVkill
p2070
aVgondrong
p2071
aVviagemampturismo
p2072
aVjeburgh
p2073
aVnumth
p2074
aVdeath
p2075
aVhippie
p2076
aVflood
p2077
aVboulder
p2078
aVmatigil
p2079
aVyuchffoknnum
p2080
aVexcept
p2081
aVnovianti
p2082
aVpila
p2083
aVcolor
p2084
aVinumgplcahenum
p2085
aVcarn
p2086
aVhewlettpackard
p2087
aVwnwnum
p2088
aVgotnum
p2089
aVtuesday
p2090
aVnumwuencxzin
p2091
aVreal
p2092
aVjake
p2093
aVaround
p2094
aVamo
p2095
aVkursi
p2096
aVread
p2097
aVamc
p2098
aVmov
p2099
aVgonna
p2100
aVmot
p2101
aVdark
p2102
aVnp
p2103
aVdari
p2104
aVtraffic
p2105
aVjqswnumfdxs
p2106
aVlistening
p2107
aVtanto
p2108
aVksdzxuwixf
p2109
aVexecution
p2110
aVforecaster
p2111
aVfurniture
p2112
aVxnumlgynumzsnum
p2113
aVbprmxtnumvir
p2114
aVdidhttps
p2115
aVznsgjnumppn
p2116
aVstranger
p2117
aVpatrick
p2118
aVnlcnumbnumokzm
p2119
aVbracelet
p2120
aVacabar
p2121
aVlightning
p2122
aVdessentials
p2123
aVchamber
p2124
aVbenefit
p2125
aVglamor
p2126
aVfischtaco
p2127
aVtower
p2128
aVtvtpiygnumkx
p2129
aVsneaker
p2130
aVsuperintendent
p2131
aVnuma
p2132
aVcaprice
p2133
aVtdock
p2134
aVbaguio
p2135
aVpacific
p2136
aVxfjgeindxl
p2137
aVhwyfznumkwpnum
p2138
aVerase
p2139
aVfcvdnumanumfnumj
p2140
aVrespect
p2141
aVufljnumixsinum
p2142
aVnumzufcjkmznum
p2143
aVgross
p2144
aVregina
p2145
aVgameofthrones
p2146
aVlawrencemo
p2147
aVcw
p2148
aVknumytweijoa
p2149
aVnumcqvjwdonumg
p2150
aVrznumqehflww
p2151
aVresponder
p2152
aVcannabis
p2153
aVexit
p2154
aVhausler
p2155
aVflyinshanghai
p2156
aVhvhyuxharx
p2157
aVmoderate
p2158
aVblitzmegaplex
p2159
aVseenonthenet
p2160
aVnjbmdnnumlao
p2161
aVeiffel
p2162
aVsolstice
p2163
aVorljkgchby
p2164
aVinternship
p2165
aVfuvwnumypanumz
p2166
aVapartment
p2167
aVaefemnumznum
p2168
aVbroken
p2169
aVdidier
p2170
aVvictorjoseph
p2171
aVrbpogapotg
p2172
aVnumqodnumfegav
p2173
aVauro
p2174
aVvwnumrmwnumtha
p2175
aVexciting
p2176
aVthrow
p2177
aVoo
p2178
aVstone
p2179
aVnummpxzdhownum
p2180
aVok
p2181
aVfirebird
p2182
aVace
p2183
aVoh
p2184
aVjeep
p2185
aVfavorite
p2186
aVlltsnumsyrnumj
p2187
aVnumxkqyfohqx
p2188
aVdevon
p2189
aVwolf
p2190
aVrapunzel
p2191
aVugprwnumbrfg
p2192
aVyouve
p2193
aVimsak
p2194
aVjoplin
p2195
aVluck
p2196
aVroad
p2197
aVcloudywhy
p2198
aVizzychihuahua
p2199
aVshoplocal
p2200
aVburning
p2201
aVcoupon
p2202
aVjatos
p2203
aVprof
p2204
aVnumokhdexmw
p2205
aVqxqvxnumkhk
p2206
aVearring
p2207
aVmlnumjnumbnumce
p2208
aVeveryone
p2209
aVwilde
p2210
aVyyc
p2211
aVstrip
p2212
aVengland
p2213
aVmark
p2214
aVgtgt
p2215
aVjnumkpzidyyo
p2216
aVyyj
p2217
aVwildfire
p2218
aVdeadstock
p2219
aVnumskjbnumvnumx
p2220
aVlegacy
p2221
aVarea
p2222
aVthere
p2223
aVhey
p2224
aVlol
p2225
aVpewaukee
p2226
aVlos
p2227
aVxfexlojnnuma
p2228
aVnnwnum
p2229
aVlow
p2230
aVstrong
p2231
aVbalto
p2232
aVbucketlist
p2233
aVsomerset
p2234
aVvalley
p2235
aValameda
p2236
aVwelovecrafts
p2237
aVowmnumayrpps
p2238
aVago
p2239
aVdormir
p2240
aVgrunge
p2241
aVmourns
p2242
aVfanatic
p2243
aVyayy
p2244
aVrider
p2245
aVfricken
p2246
aVjwbnumrnumkjai
p2247
aVbbcsp
p2248
aViloilo
p2249
aVbrain
p2250
aVplmhadkrsf
p2251
aVrifnumrqdnumip
p2252
aVcottage
p2253
aVtexted
p2254
aVbelated
p2255
aVouqhhfnumyuw
p2256
aVpull
p2257
aVrush
p2258
aVwaste
p2259
aVromantic
p2260
aVwanumggdcfrw
p2261
aVgbixnumolrqz
p2262
aVendplay
p2263
aVflirt
p2264
aVstrawberry
p2265
aVneurology
p2266
aVagora
p2267
aVomaevacay
p2268
aVmanuel
p2269
aVconqueror
p2270
aVdesnumdunumysnum
p2271
aVaa
p2272
aVknum
p2273
aVwignumfanumznumi
p2274
aVab
p2275
aVad
p2276
aVjohnny
p2277
aVnumomyyymuxn
p2278
aVmomentarily
p2279
aVah
p2280
aVdescribe
p2281
aVal
p2282
aVdeep
p2283
aVwatcher
p2284
aVtshirt
p2285
aVsalem
p2286
aVtasty
p2287
aVdaily
p2288
aVwatched
p2289
aVnumdglxtwnumnz
p2290
aVnumjrkmfmlbt
p2291
aVbishop
p2292
aVnumknumciktnum
p2293
aVfill
p2294
aVihnumkgylltx
p2295
aVsoccer
p2296
aVyoga
p2297
aVtnumatwxdnumrk
p2298
aVlievddrqlp
p2299
aVstorage
p2300
aVgraduate
p2301
aVlakefrontmarathon
p2302
aVtornado
p2303
aVvalid
p2304
aVastronaut
p2305
aVunderwater
p2306
aVnumstonhnnumk
p2307
aVyumkpimkug
p2308
aVpuppy
p2309
aVabusadong
p2310
aVmnum
p2311
aVmichael
p2312
aVdingalan
p2313
aVcjnum
p2314
aVaniao
p2315
aVpear
p2316
aVcove
p2317
aVimportant
p2318
aVrecent
p2319
aVpeak
p2320
aVhwy
p2321
aVbrass
p2322
aVkkyirkefiq
p2323
aVskywatchers
p2324
aVtiger
p2325
aVremote
p2326
aVbookreview
p2327
aVinvest
p2328
aVmask
p2329
aVhxgvphnumxzh
p2330
aVmass
p2331
aVnelson
p2332
aVhaired
p2333
aVuaknumznumffby
p2334
aVhusky
p2335
aVonscene
p2336
aVfoamposite
p2337
aVoriginal
p2338
aVfdoqnumhnumjnumy
p2339
aVmessa
p2340
aVliat
p2341
aVgryjiwovph
p2342
aVshazam
p2343
aVforget
p2344
aVvile
p2345
aVmaximum
p2346
aVlach
p2347
aVwhidbey
p2348
aVceramic
p2349
aVmonth
p2350
aVspacecraft
p2351
aVdegan
p2352
aVbennet
p2353
aVdesenhando
p2354
aVfollow
p2355
aValt
p2356
aVnumvkfenumgfsn
p2357
aVrd
p2358
aVseepilipinas
p2359
aVjugadores
p2360
aVnumcechrnumsnum
p2361
aVtx
p2362
aVimma
p2363
aVbaddest
p2364
aVtu
p2365
aVthursday
p2366
aVspirit
p2367
aVoverexpose
p2368
aVthooo
p2369
aVtl
p2370
aVhewnumlginumdq
p2371
aVtj
p2372
aVpresent
p2373
aVth
p2374
aVti
p2375
aVcrimson
p2376
aVset
p2377
aVtb
p2378
aVdcnumwaquxre
p2379
aVlibertad
p2380
aVcase
p2381
aVnghtmre
p2382
aVpremium
p2383
aVlakewood
p2384
aVdnumsloyriqb
p2385
aVfar
p2386
aVnumijnumsmrnums
p2387
aVfav
p2388
aVfat
p2389
aVselfies
p2390
aVheavenly
p2391
aVdupag
p2392
aVmarialamle
p2393
aVfan
p2394
aVdecide
p2395
aVfall
p2396
aVfab
p2397
aVticket
p2398
aViofphzuurq
p2399
aVramen
p2400
aVcondition
p2401
aVnumnnumnpxpuiq
p2402
aVmotor
p2403
aVnummmwreeva
p2404
aVpwjyzrnumazc
p2405
aVcolumbine
p2406
aVarpwnumvanumsj
p2407
aVtempat
p2408
aVsahur
p2409
aVcelebrity
p2410
aVevnumwnumovx
p2411
aVhkkcqjwpux
p2412
aVmild
p2413
aVhalalannum
p2414
aVlarge
p2415
aVsand
p2416
aVvimeo
p2417
aVsmall
p2418
aVsano
p2419
aVanal
p2420
aVtendril
p2421
aVcaso
p2422
aVteh
p2423
aVsafavieh
p2424
aVtem
p2425
aVten
p2426
aVprohealth
p2427
aVtea
p2428
aVgrasshopper
p2429
aVtee
p2430
aVwhens
p2431
aVshift
p2432
aVpast
p2433
aVburger
p2434
aVzero
p2435
aVbigdipper
p2436
aVyexrdjknumz
p2437
aVpass
p2438
aVwisconsin
p2439
aVter
p2440
aVcasual
p2441
aVamericascup
p2442
aVoklrvspnumcx
p2443
aVsue
p2444
aVabc
p2445
aVsub
p2446
aVclock
p2447
aVsun
p2448
aVsection
p2449
aVrascal
p2450
aVstunning
p2451
aVsuv
p2452
aVagredir
p2453
aVrun
p2454
aVsunrise
p2455
aVnurse
p2456
aVnumnd
p2457
aVdefency
p2458
aVfull
p2459
aVma
p2460
aVhungover
p2461
aVloose
p2462
aVvald
p2463
aVganda
p2464
aVminor
p2465
aVexploresask
p2466
aVexcess
p2467
aVpra
p2468
aVstandard
p2469
aVtable
p2470
aVzsmhtanumbru
p2471
aViinum
p2472
aVdeadheat
p2473
aVbible
p2474
aVyvr
p2475
aVdivision
p2476
aVvonumwszpdtnum
p2477
aValbionaurora
p2478
aVvlrapazptl
p2479
aVexperience
p2480
aVibnudadars
p2481
aVionkrfgdvh
p2482
aVouqlntuqcm
p2483
aVairport
p2484
aVpick
p2485
aVaction
p2486
aVbodes
p2487
aVpicc
p2488
aVtimelapsing
p2489
aVaimer
p2490
aVnumrnumzzbmpmp
p2491
aVmidkiff
p2492
aVtransit
p2493
aVxico
p2494
aVnumeznumfinumtqnum
p2495
aVbzcdwxfvvo
p2496
aVcapital
p2497
aVask
p2498
aVprsxxynumkre
p2499
aVxtdvynumnenumq
p2500
aValberta
p2501
aVuqnumynnumknumzw
p2502
aVlnumhkoxdnumhj
p2503
aVmadres
p2504
aVeye
p2505
aVnorthgeorgia
p2506
aVoxfordshire
p2507
aVdonuts
p2508
aVdestination
p2509
aVtwo
p2510
aVtwl
p2511
aVyslnumnqinumuh
p2512
aVmorn
p2513
aVsoundcloud
p2514
aVfragrance
p2515
aVgorgeous
p2516
aVxtxlnumbqese
p2517
aVpinter
p2518
aVtheanumplijnum
p2519
aVchillout
p2520
aVseanies
p2521
aVteen
p2522
aVumqdnumhwkhnum
p2523
aVsurfboardsurfboard
p2524
aVdiamond
p2525
aVdoor
p2526
aVgnum
p2527
aVnumcegzsibznum
p2528
aVcompany
p2529
aVyegwx
p2530
aVdatang
p2531
aVcinema
p2532
aVakro
p2533
aVdios
p2534
aVglad
p2535
aVtown
p2536
aVkkikofhlnump
p2537
aVhour
p2538
aVmiddle
p2539
aVscience
p2540
aVmall
p2541
aVdel
p2542
aVlihat
p2543
aVtaut
p2544
aVlearn
p2545
aVabandon
p2546
aVtalkeetna
p2547
aVdec
p2548
aVmarble
p2549
aVdef
p2550
aVbashir
p2551
aVvivaldi
p2552
aVtimelapse
p2553
aVscan
p2554
aVshare
p2555
aVqinumlblnumybc
p2556
aVpozniak
p2557
aVnumlnzinumari
p2558
aVpond
p2559
aVvoguet
p2560
aVwaterway
p2561
aVmorte
p2562
aVfemlmtnumamm
p2563
aVhuge
p2564
aVsiren
p2565
aVcourt
p2566
aVsheryll_reyes
p2567
aVlousy
p2568
aVrather
p2569
aVtqumduyzvr
p2570
aVrye
p2571
aVcsa
p2572
aVrimando
p2573
aVheck
p2574
aVsacred
p2575
aVreyes
p2576
aVcarch
p2577
aVtertunda
p2578
aVfrancemariefs
p2579
aVnumu
p2580
aVmythhawker
p2581
aVft
p2582
aVerfjanumalzi
p2583
aVcnummmnumbhwu
p2584
aVnums
p2585
aVrosty
p2586
aVadvice
p2587
aVbackgroundcheck
p2588
aVdifferent
p2589
aVfa
p2590
aVfb
p2591
aVreallifeguanum
p2592
aVblood
p2593
aVsoftball
p2594
aVgasp
p2595
aVwamnnumvupqt
p2596
aVauthentic
p2597
aVyxe
p2598
aVshort
p2599
aVregister
p2600
aVovernight
p2601
aVsupervision
p2602
aVshore
p2603
aVreunian
p2604
aVtingog
p2605
aVdream
p2606
aVgiannini
p2607
aVnumdx
p2608
aVhelp
p2609
aVreservoir
p2610
aVfathersday
p2611
aVsooo
p2612
aVsoon
p2613
aVcross
p2614
aVisnt
p2615
aValready
p2616
aVscott
p2617
aVcelular
p2618
aVnnumzaoxmspe
p2619
aVpagmumukha
p2620
aVmilwaukee
p2621
aVmcdonalds
p2622
aVlyglgnumyqa
p2623
aVheli
p2624
aVywvpnrpdtu
p2625
aVmagazine
p2626
aVewwnumprnumiyf
p2627
aVstyle
p2628
aVzdcstnumrvsnum
p2629
aVnoble
p2630
aVcall
p2631
aVpray
p2632
aVgerald
p2633
aVsale
p2634
aVhandheld
p2635
aVactually
p2636
aVmsnumanumqyjnum
p2637
aVresort
p2638
aVmxkognumo
p2639
aVxnumt
p2640
aVcool
p2641
aVmight
p2642
aVgoodmorning
p2643
aVlookout
p2644
aVsomeone
p2645
aVreturn
p2646
aVcopreps
p2647
aVshetland
p2648
aVfood
p2649
aVassiut
p2650
aVyg
p2651
aVlucys
p2652
aVgreenlake
p2653
aVnumionummcnumdae
p2654
aVgzzvqmltfb
p2655
aVstarbucks
p2656
aVmagic
p2657
aVyr
p2658
aVxnumhhnumhwts
p2659
aVsapang
p2660
aVmystery
p2661
aVmarcus
p2662
aVtanjung
p2663
aVkapag
p2664
aVmnumprnumzor
p2665
aValways
p2666
aVlevel
p2667
aVsidneybc
p2668
aVharbor
p2669
aVttot
p2670
aVman
p2671
aVrutland
p2672
aVfriendship
p2673
aVbutton
p2674
aVmtsfqxvnxf
p2675
aVvknumshnumcwr
p2676
aVjings
p2677
aVmental
p2678
aVaccelerator
p2679
aVexhaust
p2680
aVsznum
p2681
aVhouse
p2682
aVfish
p2683
aVhard
p2684
aVreduce
p2685
aVidea
p2686
aVbrother
p2687
aVlsxgenumnjnum
p2688
aVkatrina
p2689
aVconnect
p2690
aVrglyrihxcj
p2691
aVportland
p2692
aVbeyond
p2693
aVvulc
p2694
aVbzsgceunumi
p2695
aVreally
p2696
aVlola
p2697
aVnuova
p2698
aVbeautifulhome
p2699
aVnaturalliving
p2700
aVrobert
p2701
aVlolo
p2702
aVnznmwnumrcxnum
p2703
aVnumlcxncakek
p2704
aVyqvxeltuql
p2705
aVhill
p2706
aVparadise
p2707
aVprint
p2708
aVyegsky
p2709
aVissue
p2710
aVynumexnumbyvr
p2711
aVhighway
p2712
aVdunk
p2713
aVdrink
p2714
aVayodolan
p2715
aVbelief
p2716
aVzghkmgyint
p2717
aVyucjpclryo
p2718
aVfriday
p2719
aVlarufoto
p2720
aVhorse
p2721
aVknumhnumbiwixj
p2722
aVxvxqcwzxeu
p2723
aVreason
p2724
aVbase
p2725
aVgiveaway
p2726
aVtiedye
p2727
aVbasa
p2728
aVbirding
p2729
aVdorset
p2730
aVbeginning
p2731
aVsouthernlights
p2732
aVwall
p2733
aVdefinition
p2734
aVciudad
p2735
aVlaunch
p2736
aVmplusplaces
p2737
aVsofuhokcbc
p2738
aVterrible
p2739
aVdksksks
p2740
aVnumnxgihelxd
p2741
aVviewon
p2742
aVlabradorite
p2743
aVyall
p2744
aVw
p2745
aVqjpdhlrulo
p2746
aVqqtyhawnumanum
p2747
aVazqiya
p2748
aVimpactante
p2749
aVkuno
p2750
aVicnumeauklnumj
p2751
aVdelicate
p2752
aVmerry
p2753
aVnacc
p2754
aVmajor
p2755
aVmr
p2756
aVdont
p2757
aVtnumkkcnumldj
p2758
aVfeel
p2759
aVtroll
p2760
aVfirsttimesurfer
p2761
aVisnumxnumlsvjk
p2762
aVnumber
p2763
aVwelcome
p2764
aVdona
p2765
aVvmnumuibramnum
p2766
aVunexpected
p2767
aVdong
p2768
aVkobe
p2769
aVvlbnumzcjrnum
p2770
aVtoofarsouth
p2771
aVtheoriginals
p2772
aVstory
p2773
aVkodama
p2774
aVkol
p2775
aVarlington
p2776
aVbumbu
p2777
aVgrime
p2778
aVleast
p2779
aVesdytnumqjrd
p2780
aVpaint
p2781
aVstation
p2782
aVjeg
p2783
aVstatement
p2784
aVmama
p2785
aVmothersday
p2786
aVpigmentation
p2787
aVbreanna
p2788
aVnumenumombnumbm
p2789
aVstore
p2790
aVgtgtgt
p2791
aVmini
p2792
aVbumble
p2793
aVsaltillo
p2794
aVpara
p2795
aVnumihitkawey
p2796
aVhotel
p2797
aVpark
p2798
aVceltic
p2799
aVmvlnumudpgsz
p2800
aVvisibility
p2801
aVappreciation
p2802
aVdentist
p2803
aVpart
p2804
aVjordan
p2805
aVeroicabrittania
p2806
aVchapelle
p2807
aVbkpnumqkdnumol
p2808
aVbelieve
p2809
aVsurfboard
p2810
aVkind
p2811
aVkindex
p2812
aVhovis
p2813
aVgrey
p2814
aVparadoxal
p2815
aVbride
p2816
aVcost
p2817
aVyaklaah
p2818
aVcockatiel
p2819
aVattorney
p2820
aVbahkan
p2821
aVfinely
p2822
aVnumcpnumufbnumjf
p2823
aVlovewhatido
p2824
aVhahaiepqnum
p2825
aVdwnkdiplbr
p2826
aVtechnician
p2827
aVtibconumctm
p2828
aVnchez
p2829
aVmacau
p2830
aVfishingcould
p2831
aVsilverness
p2832
aVphilippine
p2833
aVmagical
p2834
aVjuice
p2835
aVgraffiti
p2836
aVcontest
p2837
aVkscnum
p2838
aVmeltdown
p2839
aVkarl
p2840
aVmountain
p2841
aVgeomagnetic
p2842
aVrelationship
p2843
aVdancing
p2844
aVtrip
p2845
aVscotland
p2846
aVport
p2847
aValso
p2848
aVrektorat
p2849
aVlip
p2850
aVbuild
p2851
aVtodos
p2852
aVsnowflake
p2853
aVauroratshirt
p2854
aVponen
p2855
aVplay
p2856
aVtowards
p2857
aVbayan
p2858
aVelectric
p2859
aVcustomize
p2860
aVkai
p2861
aVchart
p2862
aVplat
p2863
aVessa
p2864
aVcharm
p2865
aVkau
p2866
aVnothing
p2867
aVkay
p2868
aVkexnumruktnf
p2869
aVmxjnumstmnumda
p2870
aVdesafio
p2871
aVcause
p2872
aVsurf
p2873
aVomaha
p2874
aVke
p2875
aVminha
p2876
aVemnumivornumd
p2877
aVclear
p2878
aVexm
p2879
aVcover
p2880
aVkl
p2881
aVheres
p2882
aVeverywherekp
p2883
aVartistic
p2884
aVku
p2885
aVcolonel
p2886
aVky
p2887
aValiya
p2888
aVmontr
p2889
aVthomas
p2890
aVvnumuxezlwsyo
p2891
aVugm
p2892
aVrestore
p2893
aVbirdy
p2894
aVsouthey
p2895
aVpage
p2896
aVvader
p2897
aVenfhdpynumuj
p2898
aVchelan
p2899
aVchuff
p2900
aVfine
p2901
aVfind
p2902
aVnumdnumewmnxts
p2903
aVimpact
p2904
aVselanjut
p2905
aVcorpore
p2906
aVcopyright
p2907
aVjustice
p2908
aVpoppin
p2909
aVcareerarc
p2910
aVbetray
p2911
aVpretty
p2912
aVxnumzjveunumrd
p2913
aVnumwrpvyriky
p2914
aVluis
p2915
aVfbwinds
p2916
aVreportaje
p2917
aVruiz
p2918
aVdonya
p2919
aVoedqnumyznumna
p2920
aVhit
p2921
aVmember
p2922
aVplushie
p2923
aVjynumbmnumffki
p2924
aVluke
p2925
aVsalud
p2926
aVmustreads
p2927
aVjcezcydwti
p2928
aVnumam
p2929
aVnumdzzgplajq
p2930
aVrest
p2931
aVteringin
p2932
aVnoaa
p2933
aVonakvenumtii
p2934
aVhardin
p2935
aVdfcxyufpms
p2936
aVcftnumcvedwz
p2937
aVcry
p2938
aVfblhnummlaxr
p2939
aVsumnumnnxo
p2940
aVpsmenumcdocity
p2941
aVcre
p2942
aVqoqefonumsaf
p2943
aVweaver
p2944
aVriver
p2945
aVkitchener
p2946
aVtourney
p2947
aVvirginia
p2948
aVinsane
p2949
aVticnumhfmfl
p2950
aVnvwanumubpnumv
p2951
aVart
p2952
aVurbxijfkmc
p2953
aVstartup
p2954
aVrhinestone
p2955
aVnumwcknumtxwnumy
p2956
aVeastishgood
p2957
aVclue
p2958
aVdefense
p2959
aVsea
p2960
aVclose
p2961
aVebay
p2962
aVaberdeen
p2963
aVretweet
p2964
aVsei
p2965
aVlisting
p2966
aVproject
p2967
aVprobable
p2968
aVexpert
p2969
aVssnum
p2970
aVrockerstylist
p2971
aVmovie
p2972
aVonepiece
p2973
aVcurrently
p2974
aVplease
p2975
aVuplighting
p2976
aVvarious
p2977
aVhnumpjzkvnumln
p2978
aVnope
p2979
aVpictured
p2980
aVeurope
p2981
aVhwrnumqxdgag
p2982
aVlatin
p2983
aVrecently
p2984
aVdani
p2985
aVicfenumamqwk
p2986
aVbrewing
p2987
aVnumrwsokyqnum
p2988
aVbrooch
p2989
aVwilloughby
p2990
aVtrabajo
p2991
aVrynnumnfpnummnum
p2992
aVkindle
p2993
aVinvisible
p2994
aVchillisaluki
p2995
aVnumummmnumpenumh
p2996
aVc
p2997
aVtrer
p2998
aVmega
p2999
aVrestaurant
p3000
aVhint
p3001
aVnamin
p3002
aVqnumimwnumaanum
p3003
aVtinsley
p3004
aVngannrpwnumb
p3005
aVoriente
p3006
aVoc
p3007
aVnumyvnumhndhuy
p3008
aVwhole
p3009
aVdttaxvfpch
p3010
aVload
p3011
aVutkaijeayg
p3012
aVelliot
p3013
aVmajesty
p3014
aVpoint
p3015
aVsimple
p3016
aVusnum
p3017
aVofpbnumrgnumpnum
p3018
aVlucha
p3019
aVwhatever
p3020
aVdnvrrides
p3021
aVgypsy
p3022
aVsimply
p3023
aVchurch
p3024
aVdeepvneckonepieceswimsuit
p3025
aVthroughout
p3026
aVblog
p3027
aVpp
p3028
aVpq
p3029
aVraise
p3030
aVsembri
p3031
aVgobacktosleep
p3032
aVdub
p3033
aVcurve
p3034
aVxaowfpgswf
p3035
aVteacher
p3036
aVwasnt
p3037
aVpa
p3038
aVdamn
p3039
aVireland
p3040
aVocean
p3041
aVbrick
p3042
aVterritory
p3043
aVmeeting
p3044
aVaurora_sobalvarro
p3045
aVempty
p3046
aVpm
p3047
aVonqvnumusqnumx
p3048
aVpessimism
p3049
aVflight
p3050
aVnumbhsnumxtbfr
p3051
aVgay
p3052
aVljnumfnumgevao
p3053
aVnumnight
p3054
aVcitizen
p3055
aVdildo
p3056
aVvanc
p3057
aVenumrhnumjupyv
p3058
aVawake
p3059
aVrepresentative
p3060
aVdemand
p3061
aVgag
p3062
aVmaseh
p3063
aVloon
p3064
aVmlc
p3065
aVcdnumeprnumyj
p3066
aVjtnianumpnumsnum
p3067
aVwhlnumqjnumof
p3068
aVnumlgnvxnumto
p3069
aVcoventry
p3070
aVstraight
p3071
aVbill
p3072
aVhaler
p3073
aVtwenty
p3074
aVnumxjnumnlnumec
p3075
aVadmire
p3076
aVobpnuminumvnump
p3077
aVmlp
p3078
aVkick
p3079
aVinum
p3080
aVfun
p3081
aVdi
p3082
aVbespoke
p3083
aVtheres
p3084
aVhoping
p3085
aVvoc
p3086
aVrip
p3087
aVaxlnnumitfnumu
p3088
aVvou
p3089
aVfinalists
p3090
aVnumdanumelknums
p3091
aVready
p3092
aVrid
p3093
aVchase
p3094
aVchurn
p3095
aVitaly
p3096
aVspectacular
p3097
aVcambridgeshire
p3098
aVtnumtzyfkjlv
p3099
aVwhiny
p3100
aVelevated
p3101
aVmgiznumezyfnum
p3102
aVfueron
p3103
aVgrand
p3104
aVhatboxghost
p3105
aVarrives
p3106
aVspecialii
p3107
aVsyd
p3108
aVfarmer
p3109
aVdefeat
p3110
aVyesterday
p3111
aValert
p3112
aVmoment
p3113
aVmavis
p3114
aVwheres
p3115
aVeuro
p3116
aVlacrosse
p3117
aVjlcgnumogrnk
p3118
aVbeanie
p3119
aVmzqxcccycb
p3120
aVtonigh
p3121
aVpertama
p3122
aVnumpawqwnum
p3123
aVelem
p3124
aVpillow
p3125
aVperson
p3126
aVrunumkwnumtbql
p3127
aVanime
p3128
aVnghnumrnumpq
p3129
aVhowe
p3130
aVy
p3131
aVmcnish
p3132
aVmeanwhile
p3133
aVmaulan
p3134
aVspend
p3135
aVnappy
p3136
aVpkjnumqnumzmxf
p3137
aVtim
p3138
aVchora
p3139
aVmontanus
p3140
aVbirthday
p3141
aVsuffolk
p3142
aVshape
p3143
aVfiestadesanjuan
p3144
aVworld
p3145
aVtur
p3146
aVprince
p3147
aValternativa
p3148
aVdandedong
p3149
aVmszznfmnnt
p3150
aVboatparty
p3151
aVjwcnumeecbhh
p3152
aVthunderjet
p3153
aVcineplex
p3154
aVcuz
p3155
aVcalor
p3156
aVbviswpicyc
p3157
aVsource
p3158
aVtidok
p3159
aVlocation
p3160
aVrgf
p3161
aVwin
p3162
aVsnap
p3163
aVdjeionumnkzl
p3164
aVnumgpjnumeecdi
p3165
aVdodcpkcdsm
p3166
aVnsnumrthpynumj
p3167
aVbukber
p3168
aVshove
p3169
aVqmtnumqasdnum
p3170
aVaustralia
p3171
aVaqtziiiclh
p3172
aVemergency
p3173
aVndezphotography
p3174
aVyuushabu
p3175
aVbig
p3176
aVcouple
p3177
aVfremont
p3178
aVsubdivision
p3179
aVwhispy
p3180
aVlovin
p3181
aVgame
p3182
aVkasi
p3183
aVqzkqynumcfyl
p3184
aVnumipbmsrydh
p3185
aVbit
p3186
aVteeshirts
p3187
aVgbcyblyajnum
p3188
aVrotate
p3189
aVd
p3190
aVuniversity
p3191
aVsignal
p3192
aVambiong
p3193
aVsnumuhtnumznumh
p3194
aVpaycheck
p3195
aVduluth
p3196
aVcontinue
p3197
aVparlor
p3198
aVbahay
p3199
aVparada
p3200
aVlucien
p3201
aVoften
p3202
aVzklnenumkonumz
p3203
aVcourse
p3204
aVabsolutely
p3205
aVexbcgnumkneu
p3206
aVduck
p3207
aVmagnificent
p3208
aVback
p3209
aVgreeting
p3210
aVunderstood
p3211
aVbnumbfleldnumy
p3212
aVsight
p3213
aVapply
p3214
aVpala
p3215
aVmoomin
p3216
aVxnzrnumbnumpwr
p3217
aVtiedyehobo
p3218
aVwanderlust
p3219
aVscale
p3220
aVjewelry
p3221
aVjunior
p3222
aVdinggalan
p3223
aVnjrwgwgjos
p3224
aVaxifnumfecjp
p3225
aVydnumkrebofs
p3226
aVcamping
p3227
aVpei
p3228
aVepurjtyftnum
p3229
aVweathernations
p3230
aVepic
p3231
aVtemple
p3232
aVlagunya
p3233
aVceneoevynumg
p3234
aVpatient
p3235
aVnumpnumefgnumwmnum
p3236
aVbc
p3237
aVbartender
p3238
aVrua
p3239
aVezfxtkjpkn
p3240
aVnowhere
p3241
aVvwanumbubqnums
p3242
aVintensa
p3243
aVpanhandle
p3244
aVficou
p3245
aVtidak
p3246
aVvnumnpnumukfn
p3247
aVwspepqlnumwg
p3248
aVnabila
p3249
aVamado
p3250
aVonumcotwnumief
p3251
aVplaza
p3252
aVgraduation
p3253
aVwnumjsvpuant
p3254
aVmelbourne
p3255
aVbestseller
p3256
aVwomens
p3257
aVvevo
p3258
aVbibigyan
p3259
aVblock
p3260
aVbisa
p3261
aVrepair
p3262
aVetvilzceym
p3263
aVjimmy
p3264
aVcolorado
p3265
aVbetancourt
p3266
aVdude
p3267
aVradicaldeal
p3268
aVjumpin
p3269
aVawdupugmnum
p3270
aVsteven
p3271
aVcisco
p3272
aVsintya
p3273
aVnumsnumynumnwcgt
p3274
aVcanal
p3275
aVontario
p3276
aVeqppsnumioonum
p3277
aVarcade
p3278
aVipcnwcnumgph
p3279
aVtqlnonumdcwv
p3280
aVquestion
p3281
aVfast
p3282
aVcustom
p3283
aVlikte
p3284
aVmastermindnz
p3285
aVhomemade
p3286
aVforward
p3287
aVxgvbwfnumvih
p3288
aVglow
p3289
aVsinai
p3290
aVetc
p3291
aVlightsnaturenightscape
p3292
aVrees
p3293
aVtytvnnumevnumn
p3294
aVposter
p3295
aVuksunshine
p3296
aVeavmszjnumpn
p3297
aVwnr
p3298
aVtvdbbnumtzqn
p3299
aVlarry
p3300
aVxeqrnumfnumpsm
p3301
aVsick
p3302
aVline
p3303
aVcalico
p3304
aVgrfxx
p3305
aVinfo
p3306
aVutc
p3307
aVjqlhmnumvbpnum
p3308
aVlnumwnumbupdzy
p3309
aVuw
p3310
aVcio
p3311
aVmaliq
p3312
aVur
p3313
aVum
p3314
aVnjtakeover
p3315
aVyouvathana
p3316
aVun
p3317
aVmature
p3318
aVfaded
p3319
aVnumrpnumoccgnnum
p3320
aVnumqydjnumixnu
p3321
aVua
p3322
aValarm
p3323
aVshes
p3324
aVcamp
p3325
aVsanumaqlqxh
p3326
aVpuget
p3327
aVnighttime
p3328
aVgrimas
p3329
aVcham
p3330
aVcoordinator
p3331
aVsingle
p3332
aVwarning
p3333
aVchat
p3334
aVnautical
p3335
aVgraceful
p3336
aVcurl
p3337
aVcafe
p3338
aVniznumjxsnumlq
p3339
aVbracket
p3340
aVrainbow
p3341
aVsupervampiro
p3342
aVnumqipctykov
p3343
aVbucketlistitem
p3344
aVnak
p3345
aVgainesville
p3346
aVrealwomenmove
p3347
aVphotocontest
p3348
aVstrathco
p3349
aVforebode
p3350
aVgre
p3351
aVbear
p3352
aVkiro
p3353
aVtrait
p3354
aVdepartment
p3355
aVsykes
p3356
aVsol
p3357
aVnice
p3358
aViloveyousomuch
p3359
aVlena
p3360
aVnumfesnumosyyw
p3361
aVnoche
p3362
aVclean
p3363
aVsxnumzzgunumy
p3364
aVfavourite
p3365
aVenterprise
p3366
aVnxrnumsjnzab
p3367
aVrockformation
p3368
aVelder
p3369
aVsong
p3370
aVristorante
p3371
aVvitellus
p3372
aVlang
p3373
aVlane
p3374
aVland
p3375
aVfighter
p3376
aVlead
p3377
aVdmwhyqnumyho
p3378
aVlakegeneva
p3379
aVnanghuhuli
p3380
aVlzusahnumdgb
p3381
aVdigoyangnum
p3382
aVsatellite
p3383
aVdepth
p3384
aVsummit
p3385
aVgloucestershire
p3386
aVqfdcnumsquqy
p3387
aVwalker
p3388
aVfresh
p3389
aVhello
p3390
aVmpvpivvwsq
p3391
aValbion
p3392
aVgt
p3393
aVedm
p3394
aVwnumfuzhnmonum
p3395
aVida
p3396
aVproduce
p3397
aVquero
p3398
aValien
p3399
aVwindy
p3400
aVtodayuniverse
p3401
aVlegal
p3402
aVga
p3403
aVmoon
p3404
aVmnumdgnummdhf
p3405
aVunsay
p3406
aVulit
p3407
aVnumptsvwpnumtq
p3408
aVgold
p3409
aVreposted
p3410
aVpeanut
p3411
aVaria
p3412
aVyoung
p3413
aVsend
p3414
aVlyfthrnumbcv
p3415
aVsshnumzggmgf
p3416
aVoutgo
p3417
aVpracticewithus
p3418
aVfamily
p3419
aVqueen
p3420
aVgarden
p3421
aVnangangahulugang
p3422
aVoutside
p3423
aVkxnvgdfokv
p3424
aVdessert
p3425
aVversion
p3426
aVonumlpwepdnumr
p3427
aVsurgeon
p3428
aVomggkdkjfjd
p3429
aVnumycxkrafkf
p3430
aVrnumnffgaola
p3431
aVbestbuy
p3432
aVsiwnumgxwutt
p3433
aVentire
p3434
aVvscocam
p3435
aVnumyear
p3436
aVfremantle
p3437
aVtransmission
p3438
aVeva
p3439
aVmarry
p3440
aVshock
p3441
aVtre
p3442
aVomvnfkdnumut
p3443
aVkansa
p3444
aVtry
p3445
aVrace
p3446
aVhbjtcnonumtf
p3447
aVlewin
p3448
aVhavent
p3449
aVlapse
p3450
aVbernie
p3451
aVcolton
p3452
aVnumzfnumrcunumtz
p3453
aVaurorabuy
p3454
aVbizslbnumyyj
p3455
aVnotridge
p3456
aVnumpnumvanumbrsu
p3457
aVbugallon
p3458
aVglimpse
p3459
aVdownload
p3460
aVjwnumhewkjfnum
p3461
aVbelleza
p3462
aVclick
p3463
aViptek
p3464
aVindex
p3465
aVbusiness
p3466
aVrate
p3467
aVchicago
p3468
aVclosetastronomer
p3469
aVnumkamqkbvxm
p3470
aVpierre
p3471
aVdengan
p3472
aVfing
p3473
aVptnumfsunumsxe
p3474
aVsmmoenumoeki
p3475
aVsuxicqnumptnum
p3476
aVbird
p3477
aVbody
p3478
aVanalsex
p3479
aVdegree
p3480
aVkldgnumawibj
p3481
aVpuspa
p3482
aVlvnumuntxjpnum
p3483
aVleo
p3484
aVexplore
p3485
aVlet
p3486
aVhealing
p3487
aVothers
p3488
aVsing
p3489
aVhhjduhgtij
p3490
aVbode
p3491
aVextreme
p3492
aVsettling
p3493
aVpresale
p3494
aVengage
p3495
aVsurvivor
p3496
aVedsaaurora
p3497
aVyouupnumdhi
p3498
aVdidnt
p3499
aVpzhvhwnumbnump
p3500
aValaska
p3501
aVrdnumlnumfzxir
p3502
aVderby
p3503
aVnumkfznumggm
p3504
aVkartika
p3505
aVgene
p3506
aVcannabiscup
p3507
aVhonor
p3508
aVthats
p3509
aVholmes
p3510
aVeyetwitch
p3511
aVegypt
p3512
aVquem
p3513
aVmanage
p3514
aVlightsgtgtgt
p3515
aVminnesota
p3516
aVexpect
p3517
aVnotwithstanding
p3518
aVdcsquared
p3519
aVcnumotyoxsw
p3520
aVxdjnumcmtv
p3521
aVmaghapon
p3522
aVscandal
p3523
aVmetro
p3524
aVstaple
p3525
aVcloud
p3526
aVnursing
p3527
aVunumrnummmief
p3528
aVpdx
p3529
aVuse
p3530
aVusd
p3531
aVcrap
p3532
aVstream
p3533
aVusa
p3534
aVfen
p3535
aVynumdirrnumrh
p3536
aVhudson
p3537
aVdnumlax
p3538
aVnext
p3539
aVchxnumrmjmt
p3540
aVcamera
p3541
aVppifdbnnumpy
p3542
aVcrab
p3543
aVvehicle
p3544
aVfrida
p3545
aVoxon
p3546
aVdiii
p3547
aVelytbnumhwrm
p3548
aVnumzhzhvlqoh
p3549
aVfalando
p3550
aVwbejsinumnpr
p3551
aVfnumf
p3552
aVlocal
p3553
aVgbjvvnumlhkl
p3554
aVhandcraft
p3555
aVyznumvnumqrnumn
p3556
aVtrail
p3557
aVtrain
p3558
aVthereeee
p3559
aVbaby
p3560
aVcentral
p3561
aVcharity
p3562
aVnumjunnum
p3563
aVmittcdnumpo
p3564
aVf
p3565
aVcairo
p3566
aVodiorne
p3567
aVride
p3568
aVxrsuflnfxnum
p3569
aVanoitecer
p3570
aVcondominium
p3571
aVcidxknfnumov
p3572
aVmeet
p3573
aVanybody
p3574
aVauroranj
p3575
aVcontrol
p3576
aVhip
p3577
aVtab
p3578
aVprocess
p3579
aVlock
p3580
aVloch
p3581
aVknumyqnumednkl
p3582
aVqueenstownnz
p3583
aVnumyrs
p3584
aVbeautifulmoments
p3585
aVnumeznrunumvnum
p3586
aVsomething
p3587
aVvnekprxanum
p3588
aVblvd
p3589
aVseguionreyna
p3590
aVtan
p3591
aVtao
p3592
aVcuteee
p3593
aVafl
p3594
aVckyyqmrxnumk
p3595
aVsit
p3596
aVmhurnumrmecw
p3597
aVsix
p3598
aVfprkvafeke
p3599
aVdelay
p3600
aVlamp
p3601
aVmuggle
p3602
aVafx
p3603
aVforest
p3604
aVanimal
p3605
aVitxehjpyuo
p3606
aVinstead
p3607
aVmvwanumclnumep
p3608
aVpanic
p3609
aVeehtskgpnumw
p3610
aVstock
p3611
aVprofile
p3612
aVnumrnummpznumaae
p3613
aVcnumclnumeyranum
p3614
aVfalta
p3615
aVchuugaku
p3616
aVfarm
p3617
aVprofilo
p3618
aVwallpaper
p3619
aVnnumlhrnvnum
p3620
aVcollection
p3621
aVfcnqxmemnumw
p3622
aVnotebook
p3623
aVbluff
p3624
aVpiace
p3625
aVhahahaha
p3626
aVserendipitytreasure
p3627
aVhawk
p3628
aVdtxccgunumd
p3629
aVnumsusnumaqqnumb
p3630
aVjwsqmvnumkbnum
p3631
aVrepresentando
p3632
aVnnumuvihgnum
p3633
aVfamous
p3634
aVhappyinternationalsurfingday
p3635
aVcounter
p3636
aVhnumbreqvmze
p3637
aVtrembling
p3638
aVsagastume
p3639
aVwoodlandwalk
p3640
aVdoubleheader
p3641
aVnumqptkanidw
p3642
aVhealthcare
p3643
aVnecklace
p3644
aVskagit
p3645
aVjolie
p3646
aVbaleraurora
p3647
aVhouston
p3648
aVglpxycbddi
p3649
aVproducer
p3650
aVchivhig
p3651
aVwawx
p3652
aVbeyourowngoal
p3653
aVdxuaxnumxtenum
p3654
aVgunman
p3655
aVbqlxavunumki
p3656
aVbnumehzynumvmo
p3657
aVfiybfdycyb
p3658
aVdt
p3659
aVperfect
p3660
aVlg
p3661
aVblake
p3662
aVle
p3663
aVlb
p3664
aVkeyless_entry_lock
p3665
aVmfddbpdhrnum
p3666
aVln
p3667
aVyyfxwdrgxr
p3668
aVll
p3669
aVcyfnumumqyfi
p3670
aVmadre
p3671
aVnumprbnumkzclm
p3672
aVtyler
p3673
aVshy
p3674
aVnine
p3675
aVoyzvlnumcztnum
p3676
aVbye
p3677
aVsjws
p3678
aVdad
p3679
aVcrash
p3680
aVfourth
p3681
aVauto
p3682
aVdan
p3683
aVpractice
p3684
aVdock
p3685
aVemerald
p3686
aVfront
p3687
aVbartending
p3688
aVfeofpenaor
p3689
aVdbpjnumkitxnum
p3690
aVxnumwhdunumlry
p3691
aVradiant
p3692
aVdolfinus
p3693
aVdnvrlostfound
p3694
aVnxdnumwnumwagnum
p3695
aVmorris
p3696
aVweather
p3697
aVsim
p3698
aVfrickin
p3699
aVinterview
p3700
aVkillll
p3701
aVadhitya
p3702
aVvjeracolleen
p3703
aVlie
p3704
aVwynwoodsignpainting
p3705
aVdue
p3706
aVpgfnummtskys
p3707
aVadventure
p3708
aVreconnation
p3709
aVnumjefwhpirt
p3710
aVearthporn
p3711
aVmanley
p3712
aVdisco
p3713
aVen
p3714
aVwitness
p3715
aVout
p3716
aVrez
p3717
aVmatt
p3718
aVkenumznumqfnumwy
p3719
aVrep
p3720
aVyup
p3721
aVsmol
p3722
aVmate
p3723
aVplayground
p3724
aVoawemvmvunum
p3725
aVstun
p3726
aVred
p3727
aVnumiewwsniqw
p3728
aVcoed
p3729
aVsouthern
p3730
aVactivity
p3731
aVmolly
p3732
aVhyundai
p3733
aVuzyjnumanumnv
p3734
aVshud
p3735
aVjill
p3736
aVque
p3737
aVyork
p3738
aVx
p3739
aVearly
p3740
aVeiutmhvqxnum
p3741
aVanyhow
p3742
aVvincent
p3743
aVlynchburg
p3744
aVhtuiynnumbnv
p3745
aVbackwards
p3746
aVdisneylandnum
p3747
aVwaterloo
p3748
aVg
p3749
aVroute
p3750
aVskateboard
p3751
aVhnumjbrqvyfv
p3752
aVbarriere
p3753
aVfeasible
p3754
aVswxxbwqxnumn
p3755
aVchilly
p3756
aVemang
p3757
aVmistyness
p3758
aVretail
p3759
aVaustin
p3760
aVfrap
p3761
aVndia
p3762
aVscene
p3763
aVilumina
p3764
aVsabang
p3765
aVcnumegonumlbnumu
p3766
aVpuppet
p3767
aVbitch
p3768
aVowner
p3769
aVbaru
p3770
aVhehe
p3771
aVstrontian
p3772
aVweathernation
p3773
aVtaniguchi
p3774
aVmanagement
p3775
aVdahil
p3776
aVkpnum
p3777
aVnumirpfnnummyo
p3778
aVnumrdnmqnumkm
p3779
aVsystem
p3780
aVwkxhkhwxbnum
p3781
aVswear
p3782
aVseaaaaaaaaaaaa
p3783
aVefcmduouonum
p3784
aVtubsfnumbvjb
p3785
aVnorton
p3786
aVpotts
p3787
aVfinal
p3788
aVtownsend
p3789
aVrepping
p3790
aVlot
p3791
aVseymour
p3792
aVpunish
p3793
aVexplanation
p3794
aVnobody
p3795
aVshorty
p3796
aVlil
p3797
aVaryan
p3798
aVmalinhead
p3799
aVudh
p3800
aVelite
p3801
aVbargain
p3802
aVgotchu
p3803
aVipad
p3804
aVvxhndyiynumf
p3805
aVbeh
p3806
aVeuhhhnumibnume
p3807
aVbel
p3808
aVculture
p3809
aVbubble
p3810
aVgaya
p3811
aVlion
p3812
aVbed
p3813
aVbee
p3814
aVsweden
p3815
aVdenmark
p3816
aVsculpture
p3817
aVencore
p3818
aVdrunk
p3819
aVwinnepesaukee
p3820
aVstorybrooke
p3821
aVjourney
p3822
aVcnum
p3823
aVhalf
p3824
aVsonho
p3825
aVenforcer
p3826
aVcorona
p3827
aVportrait
p3828
aVthroat
p3829
aVblockbuster
p3830
aVapparently
p3831
aVclearly
p3832
aVxitnumnezhnumt
p3833
aVphysicaltherapist
p3834
aVsings
p3835
aVcongrats
p3836
aVsnumdfdnumvdnumq
p3837
aVable
p3838
aVbalernum
p3839
aVmix
p3840
aVverslavend
p3841
aVnumbftmesmnumk
p3842
aVhonestly
p3843
aVlily
p3844
aVsirius
p3845
aVsoar
p3846
aVworldwide
p3847
aVnumhappydays
p3848
aVhgfziajsfl
p3849
aVdeceive
p3850
aVclash
p3851
aVcollaboration
p3852
aVwho
p3853
aVspose
p3854
aVnumjlnmgjqnumm
p3855
aVmercurytransit
p3856
aVmontana
p3857
aVtripod
p3858
aVsb
p3859
aVsff
p3860
aVclass
p3861
aVnumzhxnumtcxrt
p3862
aVcellphone
p3863
aVbeyonc
p3864
aVdupage
p3865
aVeject
p3866
aVlicelhaqrs
p3867
aVrequest
p3868
aVface
p3869
aVmnumhxtzfvct
p3870
aVnobodys
p3871
aVtalk
p3872
aVumcytlrnumnx
p3873
aVbrew
p3874
aVoccasion
p3875
aVtidur
p3876
aVpainting
p3877
aVaway
p3878
aVho
p3879
aVfjwkdqunummf
p3880
aVodnumnvnumgkau
p3881
aVhoodies
p3882
aVentertain
p3883
aVexclusive
p3884
aVtext
p3885
aVbring
p3886
aVinumjbanumy
p3887
aVaurorabartending
p3888
aVseaweed
p3889
aVimong
p3890
aVrainbowsphere
p3891
aVcareful
p3892
aVfeat
p3893
aVeuralmanacblogblog
p3894
aVweekendgetaway
p3895
aVgqmcdgmdll
p3896
aVhgnumgxxnumcdn
p3897
aVsolarstorm
p3898
aVursinus
p3899
aVtire
p3900
aVjay
p3901
aVjlfwnumolncf
p3902
aVabstractart
p3903
aVxgrnwgacki
p3904
aVbrighten
p3905
aVjap
p3906
aVeat
p3907
aVpelgag
p3908
aVterminam
p3909
aVjam
p3910
aVrinumfwicduj
p3911
aVtudo
p3912
aVb
p3913
aVamazing
p3914
aVhope
p3915
aVfinger
p3916
aVbwnumjnifvtnum
p3917
aVmove
p3918
aVhandle
p3919
aVbeat
p3920
aVphotography
p3921
aVlucky
p3922
aVepnumzdanumhhl
p3923
aVlikely
p3924
aVwatercolor
p3925
aVjoint
p3926
aVnumzjiviwthx
p3927
aVdrawn
p3928
aVtiming
p3929
aVnearly
p3930
aVvinumahyvmnum
p3931
aVqs
p3932
aVsambisari
p3933
aVtemp
p3934
aVzakbrbyboe
p3935
aVnumhkrbnyw
p3936
aVglasgow
p3937
aVsha
p3938
aVqc
p3939
aVstuff
p3940
aVpvqnkhfuvp
p3941
aVpemmsvyefv
p3942
aVohio
p3943
aVzqnrofvnumid
p3944
aVnumltkcdnumikz
p3945
aVavailable
p3946
aVbtw
p3947
aValbania
p3948
aVbenton
p3949
aVnational
p3950
aVnumksinumqenumw
p3951
aVknnpolgyib
p3952
aVnorte
p3953
aVxtnumlpmjpznum
p3954
aVedition
p3955
aVoconomowoc
p3956
aVtulog
p3957
aVlannumekuhnumg
p3958
aVwire
p3959
aVjurassic
p3960
aVclearing
p3961
aVkhania
p3962
aVtnumvvgkxnume
p3963
aVdundee
p3964
aVfavor
p3965
aVylcampbucketlist
p3966
aVvjsenum
p3967
aVclassicharborline
p3968
aVprogress
p3969
aVtheagency
p3970
aVspeed
p3971
aVrignumysyflnum
p3972
aVxjcnbvknumg
p3973
aVattention
p3974
aVbrentwood
p3975
aVsuperior
p3976
aVdcsnumeqnumuhp
p3977
aVdarpa
p3978
aVwanumcutvnumrnum
p3979
aVhandpicked
p3980
aVstoreshelf
p3981
aVjoe
p3982
aVkey
p3983
aVgroup
p3984
aVfnumokenumnrlp
p3985
aVtrovo
p3986
aVaqui
p3987
aVceritanya
p3988
aVjoke
p3989
aVbakalan
p3990
aVwu
p3991
aVhog
p3992
aVswarovski
p3993
aVbristol
p3994
aVnumgqwmnumlkme
p3995
aVhighland
p3996
aVhnumpcpgapli
p3997
aVregram
p3998
aVymztjuxlkn
p3999
aVco
p4000
aVcl
p4001
aVcc
p4002
aVca
p4003
aVcbcca
p4004
aVgaling
p4005
aVwalk
p4006
aVtormenta
p4007
aVgitu
p4008
aVcelestial
p4009
aVnumnunumnbgzuj
p4010
aVlaugh
p4011
aVcr
p4012
aVvruxnumyuugf
p4013
aVhphfkdlkjp
p4014
aVanumsfmhdptn
p4015
aVnumueumwaveq
p4016
aVquit
p4017
aVremix
p4018
aVkkbubktnumfnum
p4019
aVhairmakeamphelp
p4020
aVaf
p4021
aVirawati
p4022
aVyas
p4023
aVnumqzgqbkmyk
p4024
aVrsoutfnumjnume
p4025
aVgaze
p4026
aVtreat
p4027
aVyak
p4028
aVfeliz
p4029
aVbbw
p4030
aVbalete
p4031
aVfreak
p4032
aVvpaqrrmrnumr
p4033
aVmike
p4034
aVnuminch
p4035
aVnummnumzettytw
p4036
aVwanna
p4037
aVverizon
p4038
aVnumgimlpnkkr
p4039
aVudmzkgyrbw
p4040
aVverdadeiras
p4041
aVtoddler
p4042
aVewan
p4043
aVbrunch
p4044
aVgeneral
p4045
aVlmtjmbbvdq
p4046
aVlatergram
p4047
aVvolunteer
p4048
aVmulti
p4049
aVholiday
p4050
aVysl
p4051
aVmenembus
p4052
aVneed
p4053
aVejection
p4054
aVappearance
p4055
aVas
p4056
aVgucci
p4057
aVpenna
p4058
aVhahaha
p4059
aVwild
p4060
aVkelahiran
p4061
aVgmfuuhxswt
p4062
aVtomcatpride
p4063
aVlayoff
p4064
aVve
p4065
aVexplorealberta
p4066
aVyearinspace
p4067
aValmost
p4068
aVahora
p4069
aVlapland
p4070
aVjwknfzwsmd
p4071
aVroll
p4072
aVbead
p4073
aVwiftdkonumq
p4074
aVvs
p4075
aVvv
p4076
aVpolitics
p4077
aVave
p4078
aVindotravellers
p4079
aVwarks
p4080
aVcapture
p4081
aVbeatz
p4082
aVbasang
p4083
aVtiestos
p4084
aVvintage
p4085
aVjuan
p4086
aVgsnumlnumchszo
p4087
aVsummernights
p4088
aVpaulo
p4089
aVbesting
p4090
aVnumjktazpnumad
p4091
aVspeaker
p4092
aVnorthwest
p4093
aVtrlnumuimzy
p4094
aVparty
p4095
aVgqozhykyof
p4096
aVilovealberta
p4097
aVstart
p4098
aVazzahra
p4099
aVtodo
p4100
aVball
p4101
aVauroraabba
p4102
aVmommy
p4103
aVmudra
p4104
aVadeline
p4105
aVgrafton
p4106
aVwraenumhlexw
p4107
aVios
p4108
aVeffect
p4109
aVromeo
p4110
aVion
p4111
aVstudent
p4112
aVfilha
p4113
aVphs
p4114
aVjnumrcnxrpod
p4115
aVvinumlkeaaqy
p4116
aVjudgment
p4117
aVidentity
p4118
aVyeah
p4119
aVdicoverbaler
p4120
aVcenter
p4121
ag176
aVovercast
p4122
aVharoldos
p4123
aVthought
p4124
aVlvnumvqvspxg
p4125
aVrnumlehwhlbh
p4126
aVputumaya
p4127
aVnumct
p4128
aVqnumqtenlnumc
p4129
aVaudio
p4130
aVmangobikes
p4131
aVdrawing
p4132
aVny
p4133
aVless
p4134
aVnumnecnumklqnum
p4135
aVhisteria
p4136
aVsunrisebeach
p4137
aVclinic
p4138
aVfishing
p4139
aVdakota
p4140
aVscappoose
p4141
aVvalklnumnnumxb
p4142
aVnicky
p4143
aVobsexshton
p4144
aVwee
p4145
aVfield
p4146
aVgqvanumktnumkq
p4147
aVtanawan
p4148
aVsmith
p4149
aVlake
p4150
aVbench
p4151
aVadd
p4152
aVade
p4153
aVawnumfnumfcowu
p4154
aVada
p4155
aVlalapan
p4156
aVsspyzqsbnumg
p4157
aVsmart
p4158
aVvnnumsrx
p4159
aVduren
p4160
aVzinumtkbqsznum
p4161
aVputri
p4162
aVgovernment
p4163
aVhowto
p4164
aVtreehouse
p4165
aVmunich
p4166
aVhistoria
p4167
aVmasih
p4168
aVcqnumhanumznumjj
p4169
aVbwlch
p4170
aVcasiguran
p4171
aVcelebro
p4172
aVxmxzyhnumtza
p4173
aVvibrant
p4174
aVnumsgohcjtvv
p4175
aVgirl
p4176
aVhunny
p4177
aVmutnumonuminumbf
p4178
aVbecome
p4179
aVnumbuiionumjmh
p4180
aVsoft
p4181
aVe
p4182
aVcandi
p4183
aVitalian
p4184
aVvsu
p4185
aVnotwhich
p4186
aVnumyyjvsctnum
p4187
aValive
p4188
aVpersit
p4189
aVhair
p4190
aVchampionship
p4191
aVnumhxznumjcnumy
p4192
aVhome
p4193
aVqotfhunumanum
p4194
aVballot
p4195
aVbamburgh
p4196
aVjnuphnumraqm
p4197
aVmelek
p4198
aVrina
p4199
aVdelaware
p4200
aVbmhxksnumpnumu
p4201
aVnumwtejyoo
p4202
aVwoohoo
p4203
aVpkejxvnumfnumq
p4204
aVgemilang
p4205
aVfitri
p4206
aVsnuggle
p4207
aVlocate
p4208
aVxcsnanumunumm
p4209
aVunumpzcyxbwl
p4210
aVcadaverous
p4211
aVenum
p4212
aVchoker
p4213
aVbathroom
p4214
aVslut
p4215
aVpasti
p4216
aVpressure
p4217
aVkristin
p4218
aVamy
p4219
aVtonightlet
p4220
aVr
p4221
aVcbsnum
p4222
aVvenofvaxei
p4223
aVsister
p4224
aVjbuinumugss
p4225
aVrare
p4226
aVtjet
p4227
aVwxcunumxdjwu
p4228
aVinfrared
p4229
aVuniverse
p4230
aVlatepost
p4231
aVnumave
p4232
aVjerielc
p4233
aVblnumjgoezx
p4234
aVghnum
p4235
aVirritate
p4236
aVodlymifdlh
p4237
aVsnumgrjmnumaqg
p4238
aVxayehehnumej
p4239
aVmtpilchuck
p4240
aVem
p4241
aVmyhood
p4242
aVpussy
p4243
aVopwiguurnum
p4244
aVwashington
p4245
aVmcmnumckbuhc
p4246
aVadne
p4247
aVsqueak
p4248
aVplayoff
p4249
aVdoesnt
p4250
aVchamp
p4251
aVvhhinumthnumsy
p4252
aVcouldnt
p4253
aVstrategy
p4254
aVsander
p4255
aVmississippi
p4256
aVastronomy
p4257
aVadditional
p4258
aVtaman
p4259
aVgwcdccnumgd
p4260
aVkernow
p4261
aVmuseum
p4262
aVfirefighter
p4263
aVefmnumekaeta
p4264
aVinwlspaonumh
p4265
aVtrigger
p4266
aVed
p4267
aVnumsuqnumdxptnum
p4268
aVexposure
p4269
aVorgasmed
p4270
aVfollowme
p4271
aVfunction
p4272
aVmikeontheroad
p4273
aVbuy
p4274
aVstadium
p4275
aVpennelli
p4276
aVhr
p4277
aVbus
p4278
aVbrand
p4279
aVpe
p4280
aVhu
p4281
aVdelivery
p4282
aVhk
p4283
aVhi
p4284
aVnewtown
p4285
aVhm
p4286
aVkuning
p4287
aVhadrtmjtii
p4288
aVediting
p4289
aVkyiklofxbq
p4290
aVbug
p4291
aVlynn
p4292
aVglory
p4293
aVnuminumufifkth
p4294
aVwish
p4295
aVwife
p4296
aVfringebuzz
p4297
aVpo
p4298
aVexcitement
p4299
aVazizah
p4300
aVhubertus
p4301
aVhand
p4302
aVnumdjdmawozc
p4303
aVnasa
p4304
aVpiece
p4305
aVlakeland
p4306
aVagcxbrchnumh
p4307
aVpatricia
p4308
aVpin
p4309
aVbiyahero
p4310
aVorbit
p4311
aVpie
p4312
aVsok
p4313
aVsimpatica
p4314
aVinn
p4315
aVromance
p4316
aVini
p4317
aVink
p4318
aVshooting
p4319
aVpit
p4320
aVanesthesia
p4321
aVchampion
p4322
aVwbqnumbumwgj
p4323
aVjoysshop
p4324
aVcoisa
p4325
aVincredible
p4326
aVdetail
p4327
aVvirtual
p4328
aVpacifica
p4329
aVkoktdinumogk
p4330
aVlookup
p4331
aVsandy
p4332
aVmelonhead
p4333
aVsica
p4334
aVponytail
p4335
aVadam
p4336
aValbum
p4337
aVjunk
p4338
aVmonday
p4339
aVnnmnumchcxiu
p4340
aVworkbringing
p4341
aVjune
p4342
aVmenit
p4343
aVfrustrate
p4344
aVnummin
p4345
aVkinda
p4346
aVnintendo
p4347
aVcrsnumvovvig
p4348
aVpanoramas
p4349
aVvsco
p4350
aVvai
p4351
aVinspiration
p4352
aVghost
p4353
aVlovefashionletstalk
p4354
aVbanff
p4355
aVbaker
p4356
aVeon
p4357
aVrule
p4358
aVkocfnumlis
p4359
aVportion
p4360
aVcraft
p4361
aVpccmarkets
p4362
aVtricities
p4363
aVisusofvmsnum
p4364
aVfulbmpceqb
p4365
atp4366
Rp4367
sS'binary'
p4368
I00
sS'lowercase'
p4369
I00
sS'stop_words'
p4370
NsS'tokenizer'
p4371
csvm_model.classification_module
identity
p4372
sS'vocabulary_'
p4373
(dp4374
Vnew
p4375
cnumpy.core.multiarray
scalar
p4376
(cnumpy
dtype
p4377
(S'i8'
p4378
I0
I1
tp4379
Rp4380
(I3
S'<'
p4381
NNNI-1
I-1
I0
tp4382
bS'9\x00\x00\x00\x00\x00\x00\x00'
p4383
tp4384
Rp4385
sVgive
p4386
g4376
(g4380
S'\x1b\x00\x00\x00\x00\x00\x00\x00'
p4387
tp4388
Rp4389
sVwant
p4390
g4376
(g4380
S'^\x00\x00\x00\x00\x00\x00\x00'
p4391
tp4392
Rp4393
sVrt
p4394
g4376
(g4380
S'G\x00\x00\x00\x00\x00\x00\x00'
p4395
tp4396
Rp4397
sVhook
p4398
g4376
(g4380
S'#\x00\x00\x00\x00\x00\x00\x00'
p4399
tp4400
Rp4401
sVban
p4402
g4376
(g4380
S'\n\x00\x00\x00\x00\x00\x00\x00'
p4403
tp4404
Rp4405
sVbest
p4406
g4376
(g4380
S'\x0c\x00\x00\x00\x00\x00\x00\x00'
p4407
tp4408
Rp4409
sVim
p4410
g4376
(g4380
S'&\x00\x00\x00\x00\x00\x00\x00'
p4411
tp4412
Rp4413
sVseattle
p4414
g4376
(g4380
S'I\x00\x00\x00\x00\x00\x00\x00'
p4415
tp4416
Rp4417
sVhappy
p4418
g4376
(g4380
S' \x00\x00\x00\x00\x00\x00\x00'
p4419
tp4420
Rp4421
sVtime
p4422
g4376
(g4380
S'V\x00\x00\x00\x00\x00\x00\x00'
p4423
tp4424
Rp4425
sVprediction
p4426
g4376
(g4380
S'E\x00\x00\x00\x00\x00\x00\x00'
p4427
tp4428
Rp4429
sVcurrent
p4430
g4376
(g4380
S'\x14\x00\x00\x00\x00\x00\x00\x00'
p4431
tp4432
Rp4433
sVlove
p4434
g4376
(g4380
S'3\x00\x00\x00\x00\x00\x00\x00'
p4435
tp4436
Rp4437
sVsky
p4438
g4376
(g4380
S'M\x00\x00\x00\x00\x00\x00\x00'
p4439
tp4440
Rp4441
sVmay
p4442
g4376
(g4380
S'4\x00\x00\x00\x00\x00\x00\x00'
p4443
tp4444
Rp4445
sVcity
p4446
g4376
(g4380
S'\x10\x00\x00\x00\x00\x00\x00\x00'
p4447
tp4448
Rp4449
sVsaw
p4450
g4376
(g4380
S'H\x00\x00\x00\x00\x00\x00\x00'
p4451
tp4452
Rp4453
sVshow
p4454
g4376
(g4380
S'K\x00\x00\x00\x00\x00\x00\x00'
p4455
tp4456
Rp4457
sVget
p4458
g4376
(g4380
S'\x1a\x00\x00\x00\x00\x00\x00\x00'
p4459
tp4460
Rp4461
sVmorning
p4462
g4376
(g4380
S'7\x00\x00\x00\x00\x00\x00\x00'
p4463
tp4464
Rp4465
sVorchestrate
p4466
g4376
(g4380
S'B\x00\x00\x00\x00\x00\x00\x00'
p4467
tp4468
Rp4469
sVmom
p4470
g4376
(g4380
S'6\x00\x00\x00\x00\x00\x00\x00'
p4471
tp4472
Rp4473
sVisland
p4474
g4376
(g4380
S"'\x00\x00\x00\x00\x00\x00\x00"
p4475
tp4476
Rp4477
sVauroraborealis
p4478
g4376
(g4380
S'\x06\x00\x00\x00\x00\x00\x00\x00'
p4479
tp4480
Rp4481
sVak
p4482
g4376
(g4380
S'\x01\x00\x00\x00\x00\x00\x00\x00'
p4483
tp4484
Rp4485
sVu
p4486
g4376
(g4380
S'Y\x00\x00\x00\x00\x00\x00\x00'
p4487
tp4488
Rp4489
sVvia
p4490
g4376
(g4380
S'Z\x00\x00\x00\x00\x00\x00\x00'
p4491
tp4492
Rp4493
sVbeautiful
p4494
g4376
(g4380
S'\x0b\x00\x00\x00\x00\x00\x00\x00'
p4495
tp4496
Rp4497
sVsikh
p4498
g4376
(g4380
S'L\x00\x00\x00\x00\x00\x00\x00'
p4499
tp4500
Rp4501
sVlate
p4502
g4376
(g4380
S'-\x00\x00\x00\x00\x00\x00\x00'
p4503
tp4504
Rp4505
sVgood
p4506
g4376
(g4380
S'\x1d\x00\x00\x00\x00\x00\x00\x00'
p4507
tp4508
Rp4509
sVprovince
p4510
g4376
(g4380
S'F\x00\x00\x00\x00\x00\x00\x00'
p4511
tp4512
Rp4513
sVkp
p4514
g4376
(g4380
S'*\x00\x00\x00\x00\x00\x00\x00'
p4515
tp4516
Rp4517
sVsee
p4518
g4376
(g4380
S'J\x00\x00\x00\x00\x00\x00\x00'
p4519
tp4520
Rp4521
sVlast
p4522
g4376
(g4380
S',\x00\x00\x00\x00\x00\x00\x00'
p4523
tp4524
Rp4525
sVfire
p4526
g4376
(g4380
S'\x19\x00\x00\x00\x00\x00\x00\x00'
p4527
tp4528
Rp4529
sVaustralis
p4530
g4376
(g4380
S'\x08\x00\x00\x00\x00\x00\x00\x00'
p4531
tp4532
Rp4533
sVlink
p4534
g4376
(g4380
S'1\x00\x00\x00\x00\x00\x00\x00'
p4535
tp4536
Rp4537
sVvideo
p4538
g4376
(g4380
S'[\x00\x00\x00\x00\x00\x00\x00'
p4539
tp4540
Rp4541
sVgreat
p4542
g4376
(g4380
S'\x1e\x00\x00\x00\x00\x00\x00\x00'
p4543
tp4544
Rp4545
sVhigh
p4546
g4376
(g4380
S'"\x00\x00\x00\x00\x00\x00\x00'
p4547
tp4548
Rp4549
sVla
p4550
g4376
(g4380
S'+\x00\x00\x00\x00\x00\x00\x00'
p4551
tp4552
Rp4553
sVcriminal
p4554
g4376
(g4380
S'\x13\x00\x00\x00\x00\x00\x00\x00'
p4555
tp4556
Rp4557
sVday
p4558
g4376
(g4380
S'\x15\x00\x00\x00\x00\x00\x00\x00'
p4559
tp4560
Rp4561
sVcould
p4562
g4376
(g4380
S'\x12\x00\x00\x00\x00\x00\x00\x00'
p4563
tp4564
Rp4565
sVsouth
p4566
g4376
(g4380
S'O\x00\x00\x00\x00\x00\x00\x00'
p4567
tp4568
Rp4569
sVborealis
p4570
g4376
(g4380
S'\r\x00\x00\x00\x00\x00\x00\x00'
p4571
tp4572
Rp4573
sVtonight
p4574
g4376
(g4380
S'X\x00\x00\x00\x00\x00\x00\x00'
p4575
tp4576
Rp4577
sVaurorasandy
p4578
g4376
(g4380
S'\x07\x00\x00\x00\x00\x00\x00\x00'
p4579
tp4580
Rp4581
sVgun
p4582
g4376
(g4380
S'\x1f\x00\x00\x00\x00\x00\x00\x00'
p4583
tp4584
Rp4585
sVlike
p4586
g4376
(g4380
S'0\x00\x00\x00\x00\x00\x00\x00'
p4587
tp4588
Rp4589
sVpic
p4590
g4376
(g4380
S'D\x00\x00\x00\x00\x00\x00\x00'
p4591
tp4592
Rp4593
sVaurora
p4594
g4376
(g4380
S'\x05\x00\x00\x00\x00\x00\x00\x00'
p4595
tp4596
Rp4597
sVvisible
p4598
g4376
(g4380
S']\x00\x00\x00\x00\x00\x00\x00'
p4599
tp4600
Rp4601
sVkeep
p4602
g4376
(g4380
S')\x00\x00\x00\x00\x00\x00\x00'
p4603
tp4604
Rp4605
sVlax
p4606
g4376
(g4380
S'.\x00\x00\x00\x00\x00\x00\x00'
p4607
tp4608
Rp4609
sVanother
p4610
g4376
(g4380
S'\x04\x00\x00\x00\x00\x00\x00\x00'
p4611
tp4612
Rp4613
sVearth
p4614
g4376
(g4380
S'\x18\x00\x00\x00\x00\x00\x00\x00'
p4615
tp4616
Rp4617
sVphoto
p4618
g4376
(g4380
S'C\x00\x00\x00\x00\x00\x00\x00'
p4619
tp4620
Rp4621
sVde
p4622
g4376
(g4380
S'\x16\x00\x00\x00\x00\x00\x00\x00'
p4623
tp4624
Rp4625
sVwatch
p4626
g4376
(g4380
S'_\x00\x00\x00\x00\x00\x00\x00'
p4627
tp4628
Rp4629
sVnorthernlights
p4630
g4376
(g4380
S'?\x00\x00\x00\x00\x00\x00\x00'
p4631
tp4632
Rp4633
sVnum
p4634
g4376
(g4380
S'@\x00\x00\x00\x00\x00\x00\x00'
p4635
tp4636
Rp4637
sVnews
p4638
g4376
(g4380
S':\x00\x00\x00\x00\x00\x00\x00'
p4639
tp4640
Rp4641
sVnike
p4642
g4376
(g4380
S'<\x00\x00\x00\x00\x00\x00\x00'
p4643
tp4644
Rp4645
sVmother
p4646
g4376
(g4380
S'8\x00\x00\x00\x00\x00\x00\x00'
p4647
tp4648
Rp4649
sVnight
p4650
g4376
(g4380
S';\x00\x00\x00\x00\x00\x00\x00'
p4651
tp4652
Rp4653
sVway
p4654
g4376
(g4380
S'`\x00\x00\x00\x00\x00\x00\x00'
p4655
tp4656
Rp4657
sVsolar
p4658
g4376
(g4380
S'N\x00\x00\x00\x00\x00\x00\x00'
p4659
tp4660
Rp4661
sVbaler
p4662
g4376
(g4380
S'\t\x00\x00\x00\x00\x00\x00\x00'
p4663
tp4664
Rp4665
sVhttps
p4666
g4376
(g4380
S'%\x00\x00\x00\x00\x00\x00\x00'
p4667
tp4668
Rp4669
sVtoday
p4670
g4376
(g4380
S'W\x00\x00\x00\x00\x00\x00\x00'
p4671
tp4672
Rp4673
sVstill
p4674
g4376
(g4380
S'R\x00\x00\x00\x00\x00\x00\x00'
p4675
tp4676
Rp4677
sVcare
p4678
g4376
(g4380
S'\x0e\x00\x00\x00\x00\x00\x00\x00'
p4679
tp4680
Rp4681
sVcome
p4682
g4376
(g4380
S'\x11\x00\x00\x00\x00\x00\x00\x00'
p4683
tp4684
Rp4685
sVstatus
p4686
g4376
(g4380
S'Q\x00\x00\x00\x00\x00\x00\x00'
p4687
tp4688
Rp4689
sVtheater
p4690
g4376
(g4380
S'U\x00\x00\x00\x00\x00\x00\x00'
p4691
tp4692
Rp4693
sVamp
p4694
g4376
(g4380
S'\x03\x00\x00\x00\x00\x00\x00\x00'
p4695
tp4696
Rp4697
sVamaze
p4698
g4376
(g4380
S'\x02\x00\x00\x00\x00\x00\x00\x00'
p4699
tp4700
Rp4701
sVhealth
p4702
g4376
(g4380
S'!\x00\x00\x00\x00\x00\x00\x00'
p4703
tp4704
Rp4705
sVmiss
p4706
g4376
(g4380
S'5\x00\x00\x00\x00\x00\x00\x00'
p4707
tp4708
Rp4709
sVstorm
p4710
g4376
(g4380
S'S\x00\x00\x00\x00\x00\x00\x00'
p4711
tp4712
Rp4713
sVnorthern
p4714
g4376
(g4380
S'>\x00\x00\x00\x00\x00\x00\x00'
p4715
tp4716
Rp4717
sVoligarch
p4718
g4376
(g4380
S'A\x00\x00\x00\x00\x00\x00\x00'
p4719
tp4720
Rp4721
sVwow
p4722
g4376
(g4380
S'b\x00\x00\x00\x00\x00\x00\x00'
p4723
tp4724
Rp4725
sVlook
p4726
g4376
(g4380
S'2\x00\x00\x00\x00\x00\x00\x00'
p4727
tp4728
Rp4729
sVgo
p4730
g4376
(g4380
S'\x1c\x00\x00\x00\x00\x00\x00\x00'
p4731
tp4732
Rp4733
sVlight
p4734
g4376
(g4380
S'/\x00\x00\x00\x00\x00\x00\x00'
p4735
tp4736
Rp4737
sVagenda
p4738
g4376
(g4380
S'\x00\x00\x00\x00\x00\x00\x00\x00'
p4739
tp4740
Rp4741
sVview
p4742
g4376
(g4380
S'\\\x00\x00\x00\x00\x00\x00\x00'
p4743
tp4744
Rp4745
sVjob
p4746
g4376
(g4380
S'(\x00\x00\x00\x00\x00\x00\x00'
p4747
tp4748
Rp4749
sVhttp
p4750
g4376
(g4380
S'$\x00\x00\x00\x00\x00\x00\x00'
p4751
tp4752
Rp4753
sVwell
p4754
g4376
(g4380
S'a\x00\x00\x00\x00\x00\x00\x00'
p4755
tp4756
Rp4757
sVtco
p4758
g4376
(g4380
S'T\x00\x00\x00\x00\x00\x00\x00'
p4759
tp4760
Rp4761
sVchance
p4762
g4376
(g4380
S'\x0f\x00\x00\x00\x00\x00\x00\x00'
p4763
tp4764
Rp4765
sVnorth
p4766
g4376
(g4380
S'=\x00\x00\x00\x00\x00\x00\x00'
p4767
tp4768
Rp4769
sVdisplay
p4770
g4376
(g4380
S'\x17\x00\x00\x00\x00\x00\x00\x00'
p4771
tp4772
Rp4773
sVstar
p4774
g4376
(g4380
S'P\x00\x00\x00\x00\x00\x00\x00'
p4775
tp4776
Rp4777
ssg6
g7
sS'dtype'
p4778
cnumpy
int64
p4779
sS'input'
p4780
Vcontent
p4781
sS'_tfidf'
p4782
g0
(csklearn.feature_extraction.text
TfidfTransformer
p4783
g2
Ntp4784
Rp4785
(dp4786
S'smooth_idf'
p4787
I01
sg6
g7
sS'_idf_diag'
p4788
g0
(cscipy.sparse.csr
csr_matrix
p4789
g2
Ntp4790
Rp4791
(dp4792
S'indices'
p4793
cnumpy.core.multiarray
_reconstruct
p4794
(cnumpy
ndarray
p4795
(I0
tp4796
S'b'
p4797
tp4798
Rp4799
(I1
(I99
tp4800
g4377
(S'i4'
p4801
I0
I1
tp4802
Rp4803
(I3
S'<'
p4804
NNNI-1
I-1
I0
tp4805
bI00
S'\x00\x00\x00\x00\x01\x00\x00\x00\x02\x00\x00\x00\x03\x00\x00\x00\x04\x00\x00\x00\x05\x00\x00\x00\x06\x00\x00\x00\x07\x00\x00\x00\x08\x00\x00\x00\t\x00\x00\x00\n\x00\x00\x00\x0b\x00\x00\x00\x0c\x00\x00\x00\r\x00\x00\x00\x0e\x00\x00\x00\x0f\x00\x00\x00\x10\x00\x00\x00\x11\x00\x00\x00\x12\x00\x00\x00\x13\x00\x00\x00\x14\x00\x00\x00\x15\x00\x00\x00\x16\x00\x00\x00\x17\x00\x00\x00\x18\x00\x00\x00\x19\x00\x00\x00\x1a\x00\x00\x00\x1b\x00\x00\x00\x1c\x00\x00\x00\x1d\x00\x00\x00\x1e\x00\x00\x00\x1f\x00\x00\x00 \x00\x00\x00!\x00\x00\x00"\x00\x00\x00#\x00\x00\x00$\x00\x00\x00%\x00\x00\x00&\x00\x00\x00\'\x00\x00\x00(\x00\x00\x00)\x00\x00\x00*\x00\x00\x00+\x00\x00\x00,\x00\x00\x00-\x00\x00\x00.\x00\x00\x00/\x00\x00\x000\x00\x00\x001\x00\x00\x002\x00\x00\x003\x00\x00\x004\x00\x00\x005\x00\x00\x006\x00\x00\x007\x00\x00\x008\x00\x00\x009\x00\x00\x00:\x00\x00\x00;\x00\x00\x00<\x00\x00\x00=\x00\x00\x00>\x00\x00\x00?\x00\x00\x00@\x00\x00\x00A\x00\x00\x00B\x00\x00\x00C\x00\x00\x00D\x00\x00\x00E\x00\x00\x00F\x00\x00\x00G\x00\x00\x00H\x00\x00\x00I\x00\x00\x00J\x00\x00\x00K\x00\x00\x00L\x00\x00\x00M\x00\x00\x00N\x00\x00\x00O\x00\x00\x00P\x00\x00\x00Q\x00\x00\x00R\x00\x00\x00S\x00\x00\x00T\x00\x00\x00U\x00\x00\x00V\x00\x00\x00W\x00\x00\x00X\x00\x00\x00Y\x00\x00\x00Z\x00\x00\x00[\x00\x00\x00\\\x00\x00\x00]\x00\x00\x00^\x00\x00\x00_\x00\x00\x00`\x00\x00\x00a\x00\x00\x00b\x00\x00\x00'
p4806
tp4807
bsS'indptr'
p4808
g4794
(g4795
(I0
tp4809
g4797
tp4810
Rp4811
(I1
(I100
tp4812
g4803
I00
S'\x00\x00\x00\x00\x01\x00\x00\x00\x02\x00\x00\x00\x03\x00\x00\x00\x04\x00\x00\x00\x05\x00\x00\x00\x06\x00\x00\x00\x07\x00\x00\x00\x08\x00\x00\x00\t\x00\x00\x00\n\x00\x00\x00\x0b\x00\x00\x00\x0c\x00\x00\x00\r\x00\x00\x00\x0e\x00\x00\x00\x0f\x00\x00\x00\x10\x00\x00\x00\x11\x00\x00\x00\x12\x00\x00\x00\x13\x00\x00\x00\x14\x00\x00\x00\x15\x00\x00\x00\x16\x00\x00\x00\x17\x00\x00\x00\x18\x00\x00\x00\x19\x00\x00\x00\x1a\x00\x00\x00\x1b\x00\x00\x00\x1c\x00\x00\x00\x1d\x00\x00\x00\x1e\x00\x00\x00\x1f\x00\x00\x00 \x00\x00\x00!\x00\x00\x00"\x00\x00\x00#\x00\x00\x00$\x00\x00\x00%\x00\x00\x00&\x00\x00\x00\'\x00\x00\x00(\x00\x00\x00)\x00\x00\x00*\x00\x00\x00+\x00\x00\x00,\x00\x00\x00-\x00\x00\x00.\x00\x00\x00/\x00\x00\x000\x00\x00\x001\x00\x00\x002\x00\x00\x003\x00\x00\x004\x00\x00\x005\x00\x00\x006\x00\x00\x007\x00\x00\x008\x00\x00\x009\x00\x00\x00:\x00\x00\x00;\x00\x00\x00<\x00\x00\x00=\x00\x00\x00>\x00\x00\x00?\x00\x00\x00@\x00\x00\x00A\x00\x00\x00B\x00\x00\x00C\x00\x00\x00D\x00\x00\x00E\x00\x00\x00F\x00\x00\x00G\x00\x00\x00H\x00\x00\x00I\x00\x00\x00J\x00\x00\x00K\x00\x00\x00L\x00\x00\x00M\x00\x00\x00N\x00\x00\x00O\x00\x00\x00P\x00\x00\x00Q\x00\x00\x00R\x00\x00\x00S\x00\x00\x00T\x00\x00\x00U\x00\x00\x00V\x00\x00\x00W\x00\x00\x00X\x00\x00\x00Y\x00\x00\x00Z\x00\x00\x00[\x00\x00\x00\\\x00\x00\x00]\x00\x00\x00^\x00\x00\x00_\x00\x00\x00`\x00\x00\x00a\x00\x00\x00b\x00\x00\x00c\x00\x00\x00'
p4813
tp4814
bsS'maxprint'
p4815
I50
sS'_shape'
p4816
(I99
I99
tp4817
sS'data'
p4818
g4794
(g4795
(I0
tp4819
g4797
tp4820
Rp4821
(I1
(I99
tp4822
g4377
(S'f8'
p4823
I0
I1
tp4824
Rp4825
(I3
S'<'
p4826
NNNI-1
I-1
I0
tp4827
bI00
S"\xe0q\x94V\xbf\x05\x15@\x94\x96#\xd7q\xc0\x15@\xe0q\x94V\xbf\x05\x15@\r\x1c\xb3I\x1d\xa2\x11@\x94\x96#\xd7q\xc0\x15@)\xb6k9\xea\x0e\xf6?\xdbH\x10\xb6\xdb\x99\x14@\xe6\xfa\xcc\x12G@\x15@\x94\x96#\xd7q\xc0\x15@J\xa0\x1cRgi\x10@\xe0q\x94V\xbf\x05\x15@<-R~2\x8d\x13@\xac\x1dMt[~\x15@3/\xa3)m\xa0\r@\xcf\\^\xe8\x17\x07\x16@\x94\x96#\xd7q\xc0\x15@'$\x815)\xdf\x13@\xcf\\^\xe8\x17\x07\x16@\xac\x1dMt[~\x15@\xcf\\^\xe8\x17\x07\x16@\xcf\\^\xe8\x17\x07\x16@\r\x1c\xb3I\x1d\xa2\x11@\xbfW+\xb8B8\x14@\x94\x96#\xd7q\xc0\x15@\xf6\xa4\x81\xcf\x15\xd9\x12@\xcf\\^\xe8\x17\x07\x16@V\xf4\x03.\x98W\x10@\xcf\\^\xe8\x17\x07\x16@\x94;\xe3\x8d`\x1d\x13@:^_y\x10\x99\x12@Kc\x92\xa9\xe5g\x14@\r\xe1\xc7\xf0a\xce\x14@\xe6\xfa\xcc\x12G@\x15@\xac\x1dMt[~\x15@\r\xe1\xc7\xf0a\xce\x14@\r\xe1\xc7\xf0a\xce\x14@\xc0\xb5r\xef\xebT\xfb?\x0b\x04\x1b1\xd3\xcd\x07@\x96\xce\xb7\x08\xf4#\x10@\xac\x1dMt[~\x15@\x94\x96#\xd7q\xc0\x15@\xcf\\^\xe8\x17\x07\x16@\xb83\x86?\x00\xee\x11@\x92\x15\x7f\x88OA\x13@s\x8c\xa3y\xf6|\x0c@\xe0q\x94V\xbf\x05\x15@\xe0q\x94V\xbf\x05\x15@\x8ft\xee\xbaY\x08\x04@\nt\xd3\xf7[\xb5\x13@\xfcI\xad\xc4\x87\xa9\x06@:^_y\x10\x99\x12@\xe6\xfa\xcc\x12G@\x15@<-R~2\x8d\x13@\nt\xd3\xf7[\xb5\x13@\xac\x1dMt[~\x15@\xe0q\x94V\xbf\x05\x15@\xe0q\x94V\xbf\x05\x15@\xa2*\xb5\xf6\xf6?\x12@\xcf\\^\xe8\x17\x07\x16@\xa1\xc8\x80\xceT\xef\n@\xe6\xfa\xcc\x12G@\x15@\xe0q\x94V\xbf\x05\x15@\x821\xeb;\xd9\xf6\x04@\xb8]\xa2oM\x13\x10@\xdaN\x0b\x16g\x06\x07@\xe0q\x94V\xbf\x05\x15@\xe0q\x94V\xbf\x05\x15@\x94;\xe3\x8d`\x1d\x13@\xbfW+\xb8B8\x14@\x92\x15\x7f\x88OA\x13@\x92\x15\x7f\x88OA\x13@\xac\x1dMt[~\x15@\xac\x1dMt[~\x15@'$\x815)\xdf\x13@\xaf\x06\x96x2\xcd\n@\x9c\x011V\x13\xd4\x11@\xe0q\x94V\xbf\x05\x15@\xa2*\xb5\xf6\xf6?\x12@\xcf\\^\xe8\x17\x07\x16@\nt\xd3\xf7[\xb5\x13@\xe0q\x94V\xbf\x05\x15@<-R~2\x8d\x13@\x94\x96#\xd7q\xc0\x15@H\xc2\x01\xdc\xef.\x11@\x16w\x89/\xb6\xf3\xf7?\xcf\\^\xe8\x17\x07\x16@\xa8\xb3\xed\xb2~z\x12@\xe6\xfa\xcc\x12G@\x15@}:G\xe2\x03\xea\r@\xe6\xfa\xcc\x12G@\x15@\xdbH\x10\xb6\xdb\x99\x14@\xab`\xe1\xf4\xbd\n\x14@\xdbH\x10\xb6\xdb\x99\x14@\nt\xd3\xf7[\xb5\x13@\xe0q\x94V\xbf\x05\x15@\xc0@B\xca\xcf\\\x12@\xcf\\^\xe8\x17\x07\x16@\x94\x96#\xd7q\xc0\x15@\xcf\\^\xe8\x17\x07\x16@"
p4828
tp4829
bsbsS'use_idf'
p4830
I01
sS'sublinear_tf'
p4831
I00
sS'norm'
p4832
Vl2
p4833
sbsS'strip_accents'
p4834
Nsbtp4835
a(S'classifier'
p4836
g0
(csklearn.linear_model.logistic
LogisticRegression
p4837
g2
Ntp4838
Rp4839
(dp4840
S'warm_start'
p4841
I00
sS'C'
p4842
F1.0
sS'classes_'
p4843
g4794
(g4795
(I0
tp4844
g4797
tp4845
Rp4846
(I1
(I2
tp4847
g4380
I00
S'\x00\x00\x00\x00\x00\x00\x00\x00\x01\x00\x00\x00\x00\x00\x00\x00'
p4848
tp4849
bsS'n_jobs'
p4850
I1
sS'verbose'
p4851
I0
sS'fit_intercept'
p4852
I01
sS'max_iter'
p4853
I100
sS'class_weight'
p4854
NsS'n_iter_'
p4855
g4794
(g4795
(I0
tp4856
g4797
tp4857
Rp4858
(I1
(I1
tp4859
g4803
I00
S'\x05\x00\x00\x00'
p4860
tp4861
bsS'intercept_'
p4862
g4794
(g4795
(I0
tp4863
g4797
tp4864
Rp4865
(I1
(I1
tp4866
g4825
I00
S'\x07d\xd3\x06#Y\xdd?'
p4867
tp4868
bsS'penalty'
p4869
S'l2'
p4870
sS'multi_class'
p4871
S'ovr'
p4872
sS'random_state'
p4873
Nsg6
g7
sS'dual'
p4874
I00
sS'tol'
p4875
F0.0001
sS'coef_'
p4876
g4794
(g4795
(I0
tp4877
g4797
tp4878
Rp4879
(I1
(I1
I99
tp4880
g4825
I00
S'\xbc\xbc\xbd\x088\x02\xe1?e\xb7O\x86\\`\xe6\xbf!S@\xc5uh\xa4\xbfgk\xcaN\xea.\xe6?2\xf6*5\x01\xa0\xed\xbfxl\x9c\x8fw@\x01@q\x81\xb8F\x87\xcd\xfa\xbf\x8e\x7f\xa6u\x07(\xe0?\x8b\xe9\xe2\x8c@\x0c\xf9\xbf\xba\xaf\x87MX \xf7?\xbc\xbc\xbd\x088\x02\xe1?aqt#u\xab\xe9\xbft\xbb\xf4L\x8c\xc0\xd8\xbf\xfdi\x11\xca\x02\xe8\x07\xc0n\x0c~1\xc6\xbf\xea?\xae\xd1\xff\xce\xb7u\xe1\xbf0&\xa1#\x98\xbc\xcf?\xd8\x8e\xc4\x8e\xf9\x04\xdf?*\x85\xa7\x8c\x0f\xd0\xe4\xbf\xf1y\xc37\xb4\xb7\xda?\x04H\xa8?9=\xf2\xbf-\xb1\xfa=\xfd\x1f\xd8?\x08\xa5\xe4\x7f\xa5^\xf6?R\x95\xd9\xb9\t\xbf\xf0\xbfI\x06\x97x\x16P\xf5\xbf\xcc\xfe\xa6\xb1W:\xed?\x8c\x15\xd4\xe4\x9ag\xc6\xbf$!\xf6\xb9"\xdb\xb8\xbf\x18\xb6\xe6?X\x8a\xe1\xbf\xfd\x03e\x9f\x86\xe5\xcf?(o\x96\xc3\x06\x1c\xe8\xbfL<:\x0b\x00\xea\xe3?\xd8lvG3\xfc\xeb?/\xf9\x9c\x174I\xf0?\xb0uP\xb0\xa8\x0f\xe4?\x8f(r\xc1\x7f\xbe\xe5?Um\xc8\xd7\xfdB\xd9?50\xb0(m\xa0\xdf?-\x1c=\x15\x91\xc0\xf2?T\x066\xf6\x9b-\xf2\xbf\xda\x923+3\x8b\xf6?\xce\x15j\x89\xbc\xdd\xf0\xbf\xe8\x8ct\xa44\x08\x00\xc02a\xa3\x0bH\xc2\xf1?\x90E[\x07=\xda\xf6\xbfQ\x8f\x81\xa7\xb6\xbf\xb5?\xbc\xbc\xbd\x088\x02\xe1?\xc5FY\xc7H\x14\x03\xc0n5]\xf5\xe7\x94\xd5?\xf5\x14v\xb3G>\xda?\xc6\xb5#e\x1a\xb6\xea\xbf+:\xdeN=f\xe1?M\xce\x1ej:+\xef\xbfV\x1c\x17A\xba\x17\xb2\xbf)\xa0\xa6A\xf7\\\xc3?Z\xff\x8bn\x81\x99\xe0\xbf\xafA N#\xa3a?*\xa2\xa2\xa4\xbf\x84z?\x8a\xe8\x9a\xab&\x06\xb5\xbfK\xa6\xf4\xa2\x98\x93\x04\xc0\xfc\xf4\xe9\xf5_\x01\x04@\xea$w\n\x88\xbc\xf0\xbf\xb9X\x11\x11\xf5\x1f\x02\xc0\x8ddR\x8dv\x87\x06\xc0Y\xbd\x9d\xd7[5\xc3\xbf\xbc\xbc\xbd\x088\x02\xe1?\xbc\xbc\xbd\x088\x02\xe1?\xfbt*5\x07\xa3\xbd\xbf\x81\x00\xaa\x8b\xb6\xe9\xc4?\x0e\xedLo\xd0z\xf4\xbf{\x8fj\x8c\x83A\xf5?\x83)\xca\x94\xa6\xbc\xe3?\xe9Sn\x01\x87N\xec\xbf\xd8E\xa0B]#\xf0\xbfA3\xb3\xdbA\xa7\x01\xc0\x94jT\xfc\xe3j\xf9\xbf\xbc\xbc\xbd\x088\x02\xe1?\x16\x08y\x02\xa8\xb0\xec\xbf\x07u\x0f\x88\xa66\xdc\xbf\x01C~\xdc\xf2\xd6\xfd\xbf\xc2\xff\x94\x93\xb8\x83\xec?)\t\xdel\x8d\xba\xf2\xbfd\xa6\x9c\xd7\x90\xc5\xdc\xbf\xcc\x93\xcf\xe4i\x15\x00\xc0\xab\xd8_\x13z:\xe5?\xc4\xc5pi\x96\x8d\xf3?\xa0K\xc0\x94!d\xce?\xee4 \x8c\xe2\x9d\xc6\xbfW\x92\xd1\x18\xcc\xd7\x04\xc0\x87P\x81\x0b\xf4=\xf0?bc\x94\x02\xca\x8d\xe7?\xb7n\x9fx\x8e\xd2\xb6?\xcea\n\x18\xc7\x14\xe6\xbfu\xb8\x04\xdb\xb3\xc3\xf7\xbf\xc6\x83\xf6P\xbf\x8b\xd7?\xdf\xc0+\\m~\xe6\xbfs\xb5\xa6g\x1b!\xef\xbfn-\x1f\xbd\xe0\x8e\xde\xbf\x8f\x83~\xff\xf8x\xf1\xbf'
p4881
tp4882
bsS'solver'
p4883
S'liblinear'
p4884
sS'intercept_scaling'
p4885
I1
sbtp4886
asS'labels_'
p4887
g0
(csklearn.preprocessing.label
LabelEncoder
p4888
g2
Ntp4889
Rp4890
(dp4891
g4843
g4794
(g4795
(I0
tp4892
g4797
tp4893
Rp4894
(I1
(I2
tp4895
g4377
(S'U6'
p4896
I0
I1
tp4897
Rp4898
(I3
S'<'
p4899
NNNI24
I4
I8
tp4900
bI00
S'A\x00\x00\x00u\x00\x00\x00r\x00\x00\x00o\x00\x00\x00r\x00\x00\x00a\x00\x00\x00O\x00\x00\x00t\x00\x00\x00h\x00\x00\x00e\x00\x00\x00r\x00\x00\x00\x00\x00\x00\x00'
p4901
tp4902
bsg6
g7
sbsb.